ccopy_reg
_reconstructor
p0
(cFWCore.ParameterSet.Config
Process
p1
c__builtin__
object
p2
Ntp3
Rp4
(dp5
S'CaloGeometryBuilder'
p6
g0
(cFWCore.ParameterSet.Modules
ESProducer
p7
g2
Ntp8
Rp9
(dp10
S'_Parameterizable__parameterNames'
p11
(lp12
S'SelectedCalos'
p13
asS'_isFrozen'
p14
I00
sS'_isModified'
p15
I00
sS'_lineNumber'
p16
I56
sS'_filename'
p17
S'/cvmfs/cms.cern.ch/slc7_amd64_gcc700/cms/cmssw-patch/CMSSW_10_6_4_patch1/python/FWCore/ParameterSet/Modules.py'
p18
sg13
g0
(cFWCore.ParameterSet.Types
vstring
p19
c__builtin__
list
p20
(lp21
S'HCAL'
p22
aS'ZDC'
p23
aS'CASTOR'
p24
aS'EcalBarrel'
p25
aS'EcalEndcap'
p26
aS'EcalPreshower'
p27
aS'TOWER'
p28
atp29
Rp30
(dp31
g14
I00
sS'_ParameterTypeBase__isTracked'
p32
I01
sg15
I00
sS'_nPerLine'
p33
I1
sbsS'_Labelable__label'
p34
g6
sS'_TypedParameterizable__type'
p35
g6
sbsS'_Process__sequences'
p36
(dp37
S'eventFilterHLT'
p38
g0
(cFWCore.ParameterSet.SequenceTypes
Sequence
p39
g2
Ntp40
Rp41
(dp42
g14
I00
sS'_seq'
p43
g0
(cFWCore.ParameterSet.SequenceTypes
_SequenceCollection
p44
g2
Ntp45
Rp46
(dp47
S'_collection'
p48
(lp49
g0
(cFWCore.ParameterSet.Modules
EDFilter
p50
g2
Ntp51
Rp52
(dp53
g11
(lp54
S'eventSetupPathsKey'
p55
aS'andOr'
p56
aS'HLTPaths'
p57
aS'throw'
p58
aS'TriggerResultsTag'
p59
asg14
I00
sg57
g0
(g19
g20
(lp60
S'HLT_PFJet500*'
p61
atp62
Rp63
(dp64
g14
I00
sg32
I01
sg15
I01
sg33
I1
sbsg15
I01
sg16
I29
sg17
S'/afs/cern.ch/user/p/pgardner/CMSSW_10_6_4_patch1/src/HeavyIonsAnalysis/TrackAnalysis/python/test_UL_B_ak4.py'
p65
sg34
S'hlt'
p66
sg55
g0
(cFWCore.ParameterSet.Types
string
p67
g2
Ntp68
Rp69
(dp70
g14
I00
sg32
I01
sS'_value'
p71
S''
p72
sg15
I00
sbsg59
g0
(cFWCore.ParameterSet.Types
InputTag
p73
g2
Ntp74
Rp75
(dp76
g14
I00
sg32
I01
sg15
I00
sS'_InputTag__moduleLabel'
p77
S'TriggerResults'
p78
sS'_InputTag__productInstance'
p79
g72
sS'_InputTag__processName'
p80
S'HLT'
p81
sbsg58
g0
(cFWCore.ParameterSet.Types
bool
p82
g2
Ntp83
Rp84
(dp85
g14
I00
sg32
I01
sg71
I00
sg15
I00
sbsg35
S'HLTHighLevel'
p86
sg56
g0
(g82
g2
Ntp87
Rp88
(dp89
g14
I00
sg32
I01
sg71
I01
sg15
I00
sbsbasbsg34
g38
sg15
I00
sS'_tasks'
p90
g0
(cFWCore.ParameterSet.OrderedSet
OrderedSet
p91
g2
Ntp92
Rp93
(dp94
S'map'
p95
(dp96
sS'end'
p97
(lp98
Nag98
ag98
asbsbssS'_Process__source'
p99
g0
(cFWCore.ParameterSet.Modules
Source
p100
g2
Ntp101
Rp102
(dp103
g11
(lp104
S'duplicateCheckMode'
p105
aS'fileNames'
p106
asg14
I00
sg15
I00
sg105
g0
(g67
g2
Ntp107
Rp108
(dp109
g14
I00
sg32
I00
sg71
S'noDuplicateCheck'
p110
sg15
I00
sbsg16
I196
sg17
g18
sg106
g0
(g19
g20
(lp111
S'/store/group/phys_heavyions/FECEF784-7DCA-984D-AF75-1991ACA0747A.root'
p112
atp113
Rp114
(dp115
g14
I00
sg32
I00
sg15
I00
sg33
I1
sbsg35
S'PoolSource'
p116
sbsS'XMLFromDBSource'
p117
g0
(g7
g2
Ntp118
Rp119
(dp120
g11
(lp121
S'rootDDName'
p122
aS'label'
p123
asg14
I00
sg15
I00
sg16
I56
sg17
g18
sg122
g0
(g67
g2
Ntp124
Rp125
(dp126
g14
I00
sg32
I01
sg71
S'cms:OCMS'
p127
sg15
I00
sbsg123
g0
(g67
g2
Ntp128
Rp129
(dp130
g14
I00
sg32
I01
sg71
S'Extended'
p131
sg15
I00
sbsg34
g117
sg35
S'XMLIdealGeometryESProducer'
p132
sbsS'TFileService'
p133
g0
(cFWCore.ParameterSet.Modules
Service
p134
g2
Ntp135
Rp136
(dp137
g11
(lp138
S'fileName'
p139
asg14
I00
sS'_inProcess'
p140
I01
sg15
I00
sg16
I14
sg17
g18
sg139
g0
(g67
g2
Ntp141
Rp142
(dp143
g14
I00
sg32
I01
sg71
S'output_UL_B_ak4.root'
p144
sg15
I00
sbsg35
g133
sbsS'hcalDDDSimConstants'
p145
g0
(g7
g2
Ntp146
Rp147
(dp148
g11
(lp149
S'appendToDataLabel'
p150
asg14
I00
sg150
g0
(g67
g2
Ntp151
Rp152
(dp153
g14
I00
sg32
I01
sg71
g72
sg15
I00
sbsg15
I00
sg16
I56
sg17
g18
sg34
g145
sg35
S'HcalDDDSimConstantsESModule'
p154
sbsS'source'
p155
g102
sS'RandomNumberGeneratorService'
p156
g0
(g134
g2
Ntp157
Rp158
(dp159
g14
I00
sS'horeco'
p160
g0
(cFWCore.ParameterSet.Types
PSet
p161
g2
Ntp162
Rp163
(dp164
g14
I00
sg32
I01
sg15
I00
sS'initialSeed'
p165
g0
(cFWCore.ParameterSet.Types
uint32
p166
g2
Ntp167
Rp168
(dp169
g14
I00
sg32
I00
sg71
I541321
sg15
I00
sbsg11
(lp170
g165
aS'engineName'
p171
asg171
g0
(g67
g2
Ntp172
Rp173
(dp174
g14
I00
sg32
I00
sg71
S'MixMaxRng'
p175
sg15
I00
sbsbsg16
I14
sS'externalLHEProducer'
p176
g0
(g161
g2
Ntp177
Rp178
(dp179
g14
I00
sg32
I01
sg15
I00
sg165
g0
(g166
g2
Ntp180
Rp181
(dp182
g14
I00
sg32
I00
sg71
I234567
sg15
I00
sbsg11
(lp183
g165
ag171
asg171
g0
(g67
g2
Ntp184
Rp185
(dp186
g14
I00
sg32
I00
sg71
g175
sg15
I00
sbsbsS'saveFileName'
p187
g0
(g67
g2
Ntp188
Rp189
(dp190
g14
I00
sg32
I00
sg71
g72
sg15
I00
sbsS'fastSimProducer'
p191
g0
(g161
g2
Ntp192
Rp193
(dp194
g14
I00
sg32
I01
sg15
I00
sg165
g0
(g166
g2
Ntp195
Rp196
(dp197
g14
I00
sg32
I00
sg71
I13579
sg15
I00
sbsg11
(lp198
g165
ag171
asg171
g173
sbsS'hbhereco'
p199
g0
(g161
g2
Ntp200
Rp201
(dp202
g14
I00
sg32
I01
sg15
I00
sg165
g0
(g166
g2
Ntp203
Rp204
(dp205
g14
I00
sg32
I00
sg71
I541321
sg15
I00
sbsg11
(lp206
g165
ag171
asg171
g173
sbsS'simSiStripDigiSimLink'
p207
g0
(g161
g2
Ntp208
Rp209
(dp210
g14
I00
sg32
I01
sg15
I00
sg165
g0
(g166
g2
Ntp211
Rp212
(dp213
g14
I00
sg32
I00
sg71
I1234567
sg15
I00
sbsg11
(lp214
g165
ag171
asg171
g185
sbsS'paramMuons'
p215
g0
(g161
g2
Ntp216
Rp217
(dp218
g14
I00
sg32
I01
sg15
I00
sg165
g0
(g166
g2
Ntp219
Rp220
(dp221
g14
I00
sg32
I00
sg71
I54525
sg15
I00
sbsg11
(lp222
g165
ag171
asg171
g173
sbsS'famosPileUp'
p223
g0
(g161
g2
Ntp224
Rp225
(dp226
g14
I00
sg32
I01
sg15
I00
sg165
g0
(g166
g2
Ntp227
Rp228
(dp229
g14
I00
sg32
I00
sg71
I918273
sg15
I00
sbsg11
(lp230
g165
ag171
asg171
g173
sbsS'simMuonDTDigis'
p231
g0
(g161
g2
Ntp232
Rp233
(dp234
g14
I00
sg32
I01
sg15
I00
sg165
g0
(g166
g2
Ntp235
Rp236
(dp237
g14
I00
sg32
I00
sg71
I1234567
sg15
I00
sbsg11
(lp238
g165
ag171
asg171
g185
sbsg35
g156
sg11
(lp239
g160
ag176
ag187
aS'mixRecoTracks'
p240
ag199
ag207
ag215
ag223
ag231
aS'ecalPreshowerRecHit'
p241
aS'generator'
p242
aS'simMuonRPCDigis'
p243
aS'hiSignal'
p244
aS'CTPPSFastRecHits'
p245
aS'mixSimCaloHits'
p246
aS'mix'
p247
aS'fastTrackerRecHits'
p248
aS'VtxSmeared'
p249
aS'LHCTransport'
p250
aS'ecalRecHit'
p251
aS'hfreco'
p252
ag191
aS'hiSignalG4SimHits'
p253
aS'MuonSimHits'
p254
aS'g4SimHits'
p255
aS'hiSignalLHCTransport'
p256
aS'mixGenPU'
p257
aS'l1ParamMuons'
p258
aS'simBeamSpotFilter'
p259
aS'simMuonCSCDigis'
p260
aS'mixData'
p261
asg241
g0
(g161
g2
Ntp262
Rp263
(dp264
g14
I00
sg32
I01
sg15
I00
sg165
g0
(g166
g2
Ntp265
Rp266
(dp267
g14
I00
sg32
I00
sg71
I6541321
sg15
I00
sbsg11
(lp268
g165
ag171
asg171
g173
sbsg140
I01
sg242
g0
(g161
g2
Ntp269
Rp270
(dp271
g14
I00
sg32
I01
sg15
I00
sg165
g0
(g166
g2
Ntp272
Rp273
(dp274
g14
I00
sg32
I00
sg71
I123456789
sg15
I00
sbsg11
(lp275
g165
ag171
asg171
g185
sbsg243
g0
(g161
g2
Ntp276
Rp277
(dp278
g14
I00
sg32
I01
sg15
I00
sg165
g0
(g166
g2
Ntp279
Rp280
(dp281
g14
I00
sg32
I00
sg71
I1234567
sg15
I00
sbsg11
(lp282
g165
ag171
asg171
g185
sbsg244
g0
(g161
g2
Ntp283
Rp284
(dp285
g14
I00
sg32
I01
sg15
I00
sg165
g0
(g166
g2
Ntp286
Rp287
(dp288
g14
I00
sg32
I00
sg71
I123456789
sg15
I00
sbsg11
(lp289
g165
ag171
asg171
g185
sbsg245
g0
(g161
g2
Ntp290
Rp291
(dp292
g14
I00
sg32
I01
sg15
I00
sg165
g0
(g166
g2
Ntp293
Rp294
(dp295
g14
I00
sg32
I00
sg71
I1357987
sg15
I00
sbsg11
(lp296
g165
ag171
asg171
g173
sbsg246
g0
(g161
g2
Ntp297
Rp298
(dp299
g14
I00
sg32
I01
sg15
I00
sg165
g0
(g166
g2
Ntp300
Rp301
(dp302
g14
I00
sg32
I00
sg71
I918273
sg15
I00
sbsg11
(lp303
g165
ag171
asg171
g173
sbsg247
g0
(g161
g2
Ntp304
Rp305
(dp306
g14
I00
sg32
I01
sg15
I00
sg165
g0
(g166
g2
Ntp307
Rp308
(dp309
g14
I00
sg32
I00
sg71
I12345
sg15
I00
sbsg11
(lp310
g165
ag171
asg171
g185
sbsg248
g0
(g161
g2
Ntp311
Rp312
(dp313
g14
I00
sg32
I01
sg15
I00
sg165
g0
(g166
g2
Ntp314
Rp315
(dp316
g14
I00
sg32
I00
sg71
I24680
sg15
I00
sbsg11
(lp317
g165
ag171
asg171
g173
sbsg249
g0
(g161
g2
Ntp318
Rp319
(dp320
g14
I00
sg32
I01
sg15
I00
sg165
g0
(g166
g2
Ntp321
Rp322
(dp323
g14
I00
sg32
I00
sg71
I98765432
sg15
I00
sbsg11
(lp324
g165
ag171
asg171
g185
sbsg250
g0
(g161
g2
Ntp325
Rp326
(dp327
g14
I00
sg32
I01
sg15
I00
sg165
g0
(g166
g2
Ntp328
Rp329
(dp330
g14
I00
sg32
I00
sg71
I87654321
sg15
I00
sbsg11
(lp331
g165
ag171
asg171
g173
sbsg251
g0
(g161
g2
Ntp332
Rp333
(dp334
g14
I00
sg32
I01
sg15
I00
sg165
g0
(g166
g2
Ntp335
Rp336
(dp337
g14
I00
sg32
I00
sg71
I654321
sg15
I00
sbsg11
(lp338
g165
ag171
asg171
g173
sbsg261
g0
(g161
g2
Ntp339
Rp340
(dp341
g14
I00
sg32
I01
sg15
I00
sg165
g0
(g166
g2
Ntp342
Rp343
(dp344
g14
I00
sg32
I00
sg71
I12345
sg15
I00
sbsg11
(lp345
g165
ag171
asg171
g185
sbsg240
g0
(g161
g2
Ntp346
Rp347
(dp348
g14
I00
sg32
I01
sg15
I00
sg165
g0
(g166
g2
Ntp349
Rp350
(dp351
g14
I00
sg32
I00
sg71
I918273
sg15
I00
sbsg11
(lp352
g165
ag171
asg171
g173
sbsg253
g0
(g161
g2
Ntp353
Rp354
(dp355
g14
I00
sg32
I01
sg15
I00
sg165
g0
(g166
g2
Ntp356
Rp357
(dp358
g14
I00
sg32
I00
sg71
I11
sg15
I00
sbsg11
(lp359
g165
ag171
asg171
g185
sbsg254
g0
(g161
g2
Ntp360
Rp361
(dp362
g14
I00
sg32
I01
sg15
I00
sg165
g0
(g166
g2
Ntp363
Rp364
(dp365
g14
I00
sg32
I00
sg71
I987346
sg15
I00
sbsg11
(lp366
g165
ag171
asg171
g173
sbsg255
g0
(g161
g2
Ntp367
Rp368
(dp369
g14
I00
sg32
I01
sg15
I00
sg165
g0
(g166
g2
Ntp370
Rp371
(dp372
g14
I00
sg32
I00
sg71
I11
sg15
I00
sbsg11
(lp373
g165
ag171
asg171
g185
sbsg256
g0
(g161
g2
Ntp374
Rp375
(dp376
g14
I00
sg32
I01
sg15
I00
sg165
g0
(g166
g2
Ntp377
Rp378
(dp379
g14
I00
sg32
I00
sg71
I88776655
sg15
I00
sbsg11
(lp380
g165
ag171
asg171
g173
sbsg257
g0
(g161
g2
Ntp381
Rp382
(dp383
g14
I00
sg32
I01
sg15
I00
sg165
g0
(g166
g2
Ntp384
Rp385
(dp386
g14
I00
sg32
I00
sg71
I918273
sg15
I00
sbsg11
(lp387
g165
ag171
asg171
g173
sbsg258
g0
(g161
g2
Ntp388
Rp389
(dp390
g14
I00
sg32
I01
sg15
I00
sg165
g0
(g166
g2
Ntp391
Rp392
(dp393
g14
I00
sg32
I00
sg71
I6453209
sg15
I00
sbsg11
(lp394
g165
ag171
asg171
g173
sbsg15
I00
sg259
g0
(g161
g2
Ntp395
Rp396
(dp397
g14
I00
sg32
I01
sg15
I00
sg165
g0
(g166
g2
Ntp398
Rp399
(dp400
g14
I00
sg32
I00
sg71
I87654321
sg15
I00
sbsg11
(lp401
g165
ag171
asg171
g185
sbsg260
g0
(g161
g2
Ntp402
Rp403
(dp404
g14
I00
sg32
I01
sg15
I00
sg165
g0
(g166
g2
Ntp405
Rp406
(dp407
g14
I00
sg32
I00
sg71
I11223344
sg15
I00
sbsg11
(lp408
g165
ag171
asg171
g185
sbsg252
g0
(g161
g2
Ntp409
Rp410
(dp411
g14
I00
sg32
I01
sg15
I00
sg165
g0
(g166
g2
Ntp412
Rp413
(dp414
g14
I00
sg32
I00
sg71
I541321
sg15
I00
sbsg11
(lp415
g165
ag171
asg171
g173
sbsg17
g18
sbsS'CaloTowerGeometryFromDBEP'
p416
g0
(g7
g2
Ntp417
Rp418
(dp419
g11
(lp420
S'applyAlignment'
p421
asg14
I00
sg15
I00
sg16
I56
sg17
g18
sg34
g416
sg421
g0
(g82
g2
Ntp422
Rp423
(dp424
g14
I00
sg32
I01
sg71
I00
sg15
I00
sbsg35
g416
sbsg38
g41
sS'_Process__InExtendCall'
p425
I00
sS'_Process__producers'
p426
(dp427
S'randomEngineStateProducer'
p428
g0
(cFWCore.ParameterSet.Modules
EDProducer
p429
g2
Ntp430
Rp431
(dp432
g11
(lp433
sg14
I00
sg15
I00
sg16
I162
sg17
S'/cvmfs/cms.cern.ch/slc7_amd64_gcc700/cms/cmssw-patch/CMSSW_10_6_4_patch1/python/IOMC/RandomEngine/IOMC_cff.py'
p434
sg34
g428
sg35
S'RandomEngineStateProducer'
p435
sbssS'siPixelQualityESProducer'
p436
g0
(g7
g2
Ntp437
Rp438
(dp439
g11
(lp440
S'siPixelQualityLabel'
p441
aS'ListOfRecordToMerge'
p442
asg14
I00
sg15
I01
sg16
I56
sg441
g0
(g67
g2
Ntp443
Rp444
(dp445
g14
I00
sg32
I01
sg71
g72
sg15
I00
sbsg17
g18
sg442
g0
(cFWCore.ParameterSet.Types
VPSet
p446
g20
(lp447
g0
(g161
g2
Ntp448
Rp449
(dp450
g14
I00
sg32
I01
sg15
I00
sS'record'
p451
g0
(g67
g2
Ntp452
Rp453
(dp454
g14
I00
sg32
I01
sg71
S'SiPixelQualityFromDbRcd'
p455
sg15
I00
sbsS'tag'
p456
g0
(g67
g2
Ntp457
Rp458
(dp459
g14
I00
sg32
I01
sg71
g72
sg15
I00
sbsg11
(lp460
g451
ag456
asbag0
(g161
g2
Ntp461
Rp462
(dp463
g14
I00
sg32
I01
sg15
I00
sg451
g0
(g67
g2
Ntp464
Rp465
(dp466
g14
I00
sg32
I01
sg71
S'SiPixelDetVOffRcd'
p467
sg15
I00
sbsg456
g0
(g67
g2
Ntp468
Rp469
(dp470
g14
I00
sg32
I01
sg71
g72
sg15
I00
sbsg11
(lp471
g451
ag456
asbatp472
Rp473
(dp474
g14
I00
sg32
I01
sg15
I00
sg33
I1
sbsg34
g436
sg35
S'SiPixelQualityESProducer'
p475
sbsS'GlobalTag'
p476
g0
(cFWCore.ParameterSet.Modules
ESSource
p477
g2
Ntp478
Rp479
(dp480
g11
(lp481
S'DBParameters'
p482
aS'connect'
p483
aS'globaltag'
p484
aS'RefreshEachRun'
p485
aS'pfnPrefix'
p486
aS'snapshotTime'
p487
aS'toGet'
p488
aS'pfnPostfix'
p489
aS'RefreshAlways'
p490
aS'ReconnectEachRun'
p491
aS'RefreshOpenIOVs'
p492
aS'DumpStat'
p493
asg14
I00
sg17
S'/cvmfs/cms.cern.ch/slc7_amd64_gcc700/cms/cmssw-patch/CMSSW_10_6_4_patch1/python/CondCore/ESSources/CondDBESSource_cfi.py'
p494
sg15
I00
sg484
g0
(g67
g2
Ntp495
Rp496
(dp497
g14
I00
sg32
I01
sg71
g72
sg15
I00
sbsg485
g0
(g82
g2
Ntp498
Rp499
(dp500
g14
I00
sg32
I00
sg71
I00
sg15
I00
sbsg486
g0
(g67
g2
Ntp501
Rp502
(dp503
g14
I00
sg32
I00
sg71
g72
sg15
I00
sbsg487
g0
(g67
g2
Ntp504
Rp505
(dp506
g14
I00
sg32
I01
sg71
g72
sg15
I00
sbsg488
g0
(g446
g20
(lp507
tp508
Rp509
(dp510
g14
I00
sg32
I01
sg15
I00
sg33
I1
sbsg489
g0
(g67
g2
Ntp511
Rp512
(dp513
g14
I00
sg32
I00
sg71
g72
sg15
I00
sbsg482
g0
(g161
g2
Ntp514
Rp515
(dp516
g14
I00
sg32
I01
sS'authenticationPath'
p517
g0
(g67
g2
Ntp518
Rp519
(dp520
g14
I00
sg32
I00
sg71
g72
sg15
I00
sbsg15
I00
sS'messageLevel'
p521
g0
(cFWCore.ParameterSet.Types
int32
p522
g2
Ntp523
Rp524
(dp525
g14
I00
sg32
I00
sg71
I0
sg15
I00
sbsg11
(lp526
g521
aS'security'
p527
aS'authenticationSystem'
p528
ag517
asg527
g0
(g67
g2
Ntp529
Rp530
(dp531
g14
I00
sg32
I00
sg71
g72
sg15
I00
sbsg528
g0
(g522
g2
Ntp532
Rp533
(dp534
g14
I00
sg32
I00
sg71
I0
sg15
I00
sbsbsg490
g0
(g82
g2
Ntp535
Rp536
(dp537
g14
I00
sg32
I00
sg71
I00
sg15
I00
sbsg16
I19
sg483
g0
(g67
g2
Ntp538
Rp539
(dp540
g14
I00
sg32
I01
sg71
S'frontier://FrontierProd/CMS_CONDITIONS'
p541
sg15
I00
sbsg491
g0
(g82
g2
Ntp542
Rp543
(dp544
g14
I00
sg32
I00
sg71
I00
sg15
I00
sbsg34
g476
sg492
g0
(g82
g2
Ntp545
Rp546
(dp547
g14
I00
sg32
I00
sg71
I00
sg15
I00
sbsg493
g0
(g82
g2
Ntp548
Rp549
(dp550
g14
I00
sg32
I00
sg71
I00
sg15
I00
sbsg35
S'PoolDBESSource'
p551
sbsS'_Process__endpaths'
p552
g0
(cFWCore.ParameterSet.DictTypes
SortedKeysDict
p553
c__builtin__
dict
p554
(dp555
tp556
Rp557
(dp558
S'list'
p559
(lp560
sbsS'MuonDetLayerGeometryESProducer'
p561
g0
(g7
g2
Ntp562
Rp563
(dp564
g11
(lp565
sg14
I00
sg15
I00
sg16
I56
sg17
g18
sg34
g561
sg35
g561
sbsS'EcalEndcapGeometryFromDBEP'
p566
g0
(g7
g2
Ntp567
Rp568
(dp569
g11
(lp570
g421
asg14
I00
sg15
I01
sg16
I56
sg17
g18
sg34
g566
sg421
g0
(g82
g2
Ntp571
Rp572
(dp573
g14
I00
sg32
I01
sg71
I01
sg15
I01
sbsg35
g566
sbsS'MessageLogger'
p574
g0
(g134
g2
Ntp575
Rp576
(dp577
g14
I00
sS'suppressInfo'
p578
g0
(g19
g20
(lp579
tp580
Rp581
(dp582
g14
I00
sg32
I00
sg15
I00
sg33
I1
sbsS'suppressDebug'
p583
g0
(g19
g20
(lp584
tp585
Rp586
(dp587
g14
I00
sg32
I00
sg15
I00
sg33
I1
sbsS'cout'
p588
g0
(g161
g2
Ntp589
Rp590
(dp591
g14
I00
sg32
I00
sS'placeholder'
p592
g0
(g82
g2
Ntp593
Rp594
(dp595
g14
I00
sg32
I00
sg71
I01
sg15
I00
sbsg15
I00
sg11
(lp596
g592
asbsg16
I14
sS'debugModules'
p597
g0
(g19
g20
(lp598
tp599
Rp600
(dp601
g14
I00
sg32
I00
sg15
I00
sg33
I1
sbsg35
g574
sS'fwkJobReports'
p602
g0
(g19
g20
(lp603
S'FrameworkJobReport'
p604
atp605
Rp606
(dp607
g14
I00
sg32
I00
sg15
I00
sg33
I1
sbsg11
(lp608
g578
aS'debugs'
p609
ag583
ag588
aS'cerr_stats'
p610
aS'warnings'
p611
aS'default'
p612
aS'statistics'
p613
aS'cerr'
p614
ag604
aS'suppressWarning'
p615
aS'errors'
p616
aS'destinations'
p617
ag597
aS'infos'
p618
aS'categories'
p619
ag602
asg613
g0
(g19
g20
(lp620
g610
atp621
Rp622
(dp623
g14
I00
sg32
I00
sg15
I00
sg33
I1
sbsg17
g18
sg617
g0
(g19
g20
(lp624
g611
ag616
ag618
ag609
ag588
ag614
atp625
Rp626
(dp627
g14
I00
sg32
I00
sg15
I00
sg33
I1
sbsg609
g0
(g161
g2
Ntp628
Rp629
(dp630
g14
I00
sg32
I00
sg592
g0
(g82
g2
Ntp631
Rp632
(dp633
g14
I00
sg32
I00
sg71
I01
sg15
I00
sbsg15
I00
sg11
(lp634
g592
asbsg611
g0
(g161
g2
Ntp635
Rp636
(dp637
g14
I00
sg32
I00
sg592
g0
(g82
g2
Ntp638
Rp639
(dp640
g14
I00
sg32
I00
sg71
I01
sg15
I00
sbsg15
I00
sg11
(lp641
g592
asbsg616
g0
(g161
g2
Ntp642
Rp643
(dp644
g14
I00
sg32
I00
sg592
g0
(g82
g2
Ntp645
Rp646
(dp647
g14
I00
sg32
I00
sg71
I01
sg15
I00
sbsg15
I00
sg11
(lp648
g592
asbsg604
g0
(g161
g2
Ntp649
Rp650
(dp651
g14
I00
sg32
I00
sg15
I00
sg612
g0
(g161
g2
Ntp652
Rp653
(dp654
g14
I00
sg32
I00
sS'limit'
p655
g0
(g522
g2
Ntp656
Rp657
(dp658
g14
I00
sg32
I00
sg71
I0
sg15
I00
sbsg15
I00
sg11
(lp659
g655
asbsS'FwkJob'
p660
g0
(g161
g2
Ntp661
Rp662
(dp663
g14
I00
sg32
I00
sg15
I00
sg655
g0
(g522
g2
Ntp664
Rp665
(dp666
g14
I00
sg32
I00
sg71
I10000000
sg15
I00
sbsg11
(lp667
S'optionalPSet'
p668
ag655
asg668
g0
(g82
g2
Ntp669
Rp670
(dp671
g14
I00
sg32
I00
sg71
I01
sg15
I00
sbsbsg11
(lp672
g612
ag668
ag660
asg668
g0
(g82
g2
Ntp673
Rp674
(dp675
g14
I00
sg32
I00
sg71
I01
sg15
I00
sbsbsg615
g0
(g19
g20
(lp676
tp677
Rp678
(dp679
g14
I00
sg32
I00
sg15
I00
sg33
I1
sbsg618
g0
(g161
g2
Ntp680
Rp681
(dp682
g14
I00
sg32
I00
sg15
I00
sS'Root_NoDictionary'
p683
g0
(g161
g2
Ntp684
Rp685
(dp686
g14
I00
sg32
I00
sg15
I00
sg655
g0
(g522
g2
Ntp687
Rp688
(dp689
g14
I00
sg32
I00
sg71
I0
sg15
I00
sbsg11
(lp690
g668
ag655
asg668
g0
(g82
g2
Ntp691
Rp692
(dp693
g14
I00
sg32
I00
sg71
I01
sg15
I00
sbsbsg11
(lp694
g668
ag683
ag592
asg668
g0
(g82
g2
Ntp695
Rp696
(dp697
g14
I00
sg32
I00
sg71
I01
sg15
I00
sbsg592
g0
(g82
g2
Ntp698
Rp699
(dp700
g14
I00
sg32
I00
sg71
I01
sg15
I00
sbsbsg619
g0
(g19
g20
(lp701
g660
aS'FwkReport'
p702
aS'FwkSummary'
p703
ag683
atp704
Rp705
(dp706
g14
I00
sg32
I00
sg15
I00
sg33
I1
sbsg15
I00
sg610
g0
(g161
g2
Ntp707
Rp708
(dp709
g14
I00
sg32
I00
sg15
I00
sg668
g0
(g82
g2
Ntp710
Rp711
(dp712
g14
I00
sg32
I00
sg71
I01
sg15
I00
sbsg11
(lp713
S'threshold'
p714
aS'output'
p715
ag668
asg714
g0
(g67
g2
Ntp716
Rp717
(dp718
g14
I00
sg32
I00
sg71
S'WARNING'
p719
sg15
I00
sbsg715
g0
(g67
g2
Ntp720
Rp721
(dp722
g14
I00
sg32
I00
sg71
g614
sg15
I00
sbsbsg612
g0
(g161
g2
Ntp723
Rp724
(dp725
g14
I00
sg32
I00
sg15
I00
sg11
(lp726
sbsg140
I01
sg614
g0
(g161
g2
Ntp727
Rp728
(dp729
g14
I00
sg32
I00
sS'noTimeStamps'
p730
g0
(g82
g2
Ntp731
Rp732
(dp733
g14
I00
sg32
I00
sg71
I00
sg15
I00
sbsg702
g0
(g161
g2
Ntp734
Rp735
(dp736
g14
I00
sg32
I00
sg15
I00
sS'reportEvery'
p737
g0
(g522
g2
Ntp738
Rp739
(dp740
g14
I00
sg32
I00
sg71
I1
sg15
I00
sbsg655
g0
(g522
g2
Ntp741
Rp742
(dp743
g14
I00
sg32
I00
sg71
I10000000
sg15
I00
sbsg11
(lp744
g737
ag668
ag655
asg668
g0
(g82
g2
Ntp745
Rp746
(dp747
g14
I00
sg32
I00
sg71
I01
sg15
I00
sbsbsg15
I00
sg612
g0
(g161
g2
Ntp748
Rp749
(dp750
g14
I00
sg32
I00
sg655
g0
(g522
g2
Ntp751
Rp752
(dp753
g14
I00
sg32
I00
sg71
I10000000
sg15
I00
sbsg15
I00
sg11
(lp754
g655
asbsg683
g0
(g161
g2
Ntp755
Rp756
(dp757
g14
I00
sg32
I00
sg15
I00
sg655
g0
(g522
g2
Ntp758
Rp759
(dp760
g14
I00
sg32
I00
sg71
I0
sg15
I00
sbsg11
(lp761
g668
ag655
asg668
g0
(g82
g2
Ntp762
Rp763
(dp764
g14
I00
sg32
I00
sg71
I01
sg15
I00
sbsbsS'INFO'
p765
g0
(g161
g2
Ntp766
Rp767
(dp768
g14
I00
sg32
I00
sg655
g0
(g522
g2
Ntp769
Rp770
(dp771
g14
I00
sg32
I00
sg71
I0
sg15
I00
sbsg15
I00
sg11
(lp772
g655
asbsg668
g0
(g82
g2
Ntp773
Rp774
(dp775
g14
I00
sg32
I00
sg71
I01
sg15
I00
sbsg660
g0
(g161
g2
Ntp776
Rp777
(dp778
g14
I00
sg32
I00
sg15
I00
sg655
g0
(g522
g2
Ntp779
Rp780
(dp781
g14
I00
sg32
I00
sg71
I0
sg15
I00
sbsg11
(lp782
g668
ag655
asg668
g0
(g82
g2
Ntp783
Rp784
(dp785
g14
I00
sg32
I00
sg71
I01
sg15
I00
sbsbsg703
g0
(g161
g2
Ntp786
Rp787
(dp788
g14
I00
sg32
I00
sg15
I00
sg737
g0
(g522
g2
Ntp789
Rp790
(dp791
g14
I00
sg32
I00
sg71
I1
sg15
I00
sbsg655
g0
(g522
g2
Ntp792
Rp793
(dp794
g14
I00
sg32
I00
sg71
I10000000
sg15
I00
sbsg11
(lp795
g737
ag668
ag655
asg668
g0
(g82
g2
Ntp796
Rp797
(dp798
g14
I00
sg32
I00
sg71
I01
sg15
I00
sbsbsg11
(lp799
g765
ag730
ag702
ag612
ag683
ag714
ag660
ag703
ag668
asg714
g0
(g67
g2
Ntp800
Rp801
(dp802
g14
I00
sg32
I00
sg71
g765
sg15
I00
sbsbsbsS'_Process__services'
p803
(dp804
g574
g576
sS'DQMStore'
p805
g0
(g134
g2
Ntp806
Rp807
(dp808
g11
(lp809
S'referenceFileName'
p810
aS'verbose'
p811
aS'collateHistograms'
p812
aS'enableMultiThread'
p813
aS'forceResetOnBeginLumi'
p814
aS'saveByLumi'
p815
aS'LSbasedMode'
p816
aS'verboseQT'
p817
asg14
I00
sg140
I01
sg811
g0
(g522
g2
Ntp818
Rp819
(dp820
g14
I00
sg32
I00
sg71
I0
sg15
I00
sbsg812
g0
(g82
g2
Ntp821
Rp822
(dp823
g14
I00
sg32
I00
sg71
I00
sg15
I00
sbsg810
g0
(g67
g2
Ntp824
Rp825
(dp826
g14
I00
sg32
I00
sg71
g72
sg15
I00
sbsg813
g0
(g82
g2
Ntp827
Rp828
(dp829
g14
I00
sg32
I00
sg71
I00
sg15
I00
sbsg814
g0
(g82
g2
Ntp830
Rp831
(dp832
g14
I00
sg32
I00
sg71
I00
sg15
I00
sbsg16
I14
sg815
g0
(g82
g2
Ntp833
Rp834
(dp835
g14
I00
sg32
I00
sg71
I00
sg15
I00
sbsg816
g0
(g82
g2
Ntp836
Rp837
(dp838
g14
I00
sg32
I00
sg71
I00
sg15
I00
sbsg17
g18
sg817
g0
(g522
g2
Ntp839
Rp840
(dp841
g14
I00
sg32
I00
sg71
I0
sg15
I00
sbsg35
g805
sg15
I00
sbsg156
g158
sg133
g136
ssg66
g52
sg805
g807
sS'HcalTimeSlewEP'
p842
g0
(g477
g2
Ntp843
Rp844
(dp845
g11
(lp846
S'timeSlewParametersM3'
p847
aS'timeSlewParametersM2'
p848
ag150
asg14
I00
sg847
g0
(g446
g20
(lp849
g0
(g161
g2
Ntp850
Rp851
(dp852
g14
I00
sg32
I01
sS'tspar2'
p853
g0
(cFWCore.ParameterSet.Types
double
p854
g2
Ntp855
Rp856
(dp857
g14
I00
sg32
I01
sg71
F0.0
sg15
I00
sbsg15
I00
sS'tspar0'
p858
g0
(g854
g2
Ntp859
Rp860
(dp861
g14
I00
sg32
I01
sg71
F12.2999
sg15
I00
sbsS'tspar1'
p862
g0
(g854
g2
Ntp863
Rp864
(dp865
g14
I00
sg32
I01
sg71
F-2.19142
sg15
I00
sbsS'tspar1_siPM'
p866
g0
(g854
g2
Ntp867
Rp868
(dp869
g14
I00
sg32
I01
sg71
F0.0
sg15
I00
sbsS'cap'
p870
g0
(g854
g2
Ntp871
Rp872
(dp873
g14
I00
sg32
I01
sg71
F6.0
sg15
I00
sbsS'tspar0_siPM'
p874
g0
(g854
g2
Ntp875
Rp876
(dp877
g14
I00
sg32
I01
sg71
F0.0
sg15
I00
sbsg11
(lp878
g853
ag858
ag862
ag866
ag870
ag874
aS'tspar2_siPM'
p879
asg879
g0
(g854
g2
Ntp880
Rp881
(dp882
g14
I00
sg32
I01
sg71
F0.0
sg15
I00
sbsbag0
(g161
g2
Ntp883
Rp884
(dp885
g14
I00
sg32
I01
sg853
g0
(g854
g2
Ntp886
Rp887
(dp888
g14
I00
sg32
I01
sg71
F32.0
sg15
I00
sbsg15
I00
sg858
g0
(g854
g2
Ntp889
Rp890
(dp891
g14
I00
sg32
I01
sg71
F15.5
sg15
I00
sbsg862
g0
(g854
g2
Ntp892
Rp893
(dp894
g14
I00
sg32
I01
sg71
F-3.2
sg15
I00
sbsg866
g0
(g854
g2
Ntp895
Rp896
(dp897
g14
I00
sg32
I01
sg71
F0.0
sg15
I00
sbsg870
g0
(g854
g2
Ntp898
Rp899
(dp900
g14
I00
sg32
I01
sg71
F6.0
sg15
I00
sbsg874
g0
(g854
g2
Ntp901
Rp902
(dp903
g14
I00
sg32
I01
sg71
F0.0
sg15
I00
sbsg11
(lp904
g853
ag858
ag862
ag866
ag870
ag874
ag879
asg879
g0
(g854
g2
Ntp905
Rp906
(dp907
g14
I00
sg32
I01
sg71
F0.0
sg15
I00
sbsbag0
(g161
g2
Ntp908
Rp909
(dp910
g14
I00
sg32
I01
sg853
g0
(g854
g2
Ntp911
Rp912
(dp913
g14
I00
sg32
I01
sg71
F0.0
sg15
I00
sbsg15
I00
sg858
g0
(g854
g2
Ntp914
Rp915
(dp916
g14
I00
sg32
I01
sg71
F12.2999
sg15
I00
sbsg862
g0
(g854
g2
Ntp917
Rp918
(dp919
g14
I00
sg32
I01
sg71
F-2.19142
sg15
I00
sbsg866
g0
(g854
g2
Ntp920
Rp921
(dp922
g14
I00
sg32
I01
sg71
F0.0
sg15
I00
sbsg870
g0
(g854
g2
Ntp923
Rp924
(dp925
g14
I00
sg32
I01
sg71
F6.0
sg15
I00
sbsg874
g0
(g854
g2
Ntp926
Rp927
(dp928
g14
I00
sg32
I01
sg71
F0.0
sg15
I00
sbsg11
(lp929
g853
ag858
ag862
ag866
ag870
ag874
ag879
asg879
g0
(g854
g2
Ntp930
Rp931
(dp932
g14
I00
sg32
I01
sg71
F0.0
sg15
I00
sbsbag0
(g161
g2
Ntp933
Rp934
(dp935
g14
I00
sg32
I01
sg853
g0
(g854
g2
Ntp936
Rp937
(dp938
g14
I00
sg32
I01
sg71
F0.0
sg15
I00
sbsg15
I00
sg858
g0
(g854
g2
Ntp939
Rp940
(dp941
g14
I00
sg32
I01
sg71
F12.2999
sg15
I00
sbsg862
g0
(g854
g2
Ntp942
Rp943
(dp944
g14
I00
sg32
I01
sg71
F-2.19142
sg15
I00
sbsg866
g0
(g854
g2
Ntp945
Rp946
(dp947
g14
I00
sg32
I01
sg71
F0.0
sg15
I00
sbsg870
g0
(g854
g2
Ntp948
Rp949
(dp950
g14
I00
sg32
I01
sg71
F6.0
sg15
I00
sbsg874
g0
(g854
g2
Ntp951
Rp952
(dp953
g14
I00
sg32
I01
sg71
F0.0
sg15
I00
sbsg11
(lp954
g853
ag858
ag862
ag866
ag870
ag874
ag879
asg879
g0
(g854
g2
Ntp955
Rp956
(dp957
g14
I00
sg32
I01
sg71
F0.0
sg15
I00
sbsbatp958
Rp959
(dp960
g14
I00
sg32
I01
sg15
I00
sg33
I1
sbsg848
g0
(g446
g20
(lp961
g0
(g161
g2
Ntp962
Rp963
(dp964
g14
I00
sg32
I01
sg15
I00
sS'slope'
p965
g0
(g854
g2
Ntp966
Rp967
(dp968
g14
I00
sg32
I01
sg71
F-3.178648
sg15
I00
sbsS'tmax'
p969
g0
(g854
g2
Ntp970
Rp971
(dp972
g14
I00
sg32
I01
sg71
F16.0
sg15
I00
sbsS'tzero'
p973
g0
(g854
g2
Ntp974
Rp975
(dp976
g14
I00
sg32
I01
sg71
F23.960177
sg15
I00
sbsg11
(lp977
g965
ag969
ag973
asbag0
(g161
g2
Ntp978
Rp979
(dp980
g14
I00
sg32
I01
sg15
I00
sg965
g0
(g854
g2
Ntp981
Rp982
(dp983
g14
I00
sg32
I01
sg71
F-1.5610227
sg15
I00
sbsg969
g0
(g854
g2
Ntp984
Rp985
(dp986
g14
I00
sg32
I01
sg71
F10.0
sg15
I00
sbsg973
g0
(g854
g2
Ntp987
Rp988
(dp989
g14
I00
sg32
I01
sg71
F11.977461
sg15
I00
sbsg11
(lp990
g965
ag969
ag973
asbag0
(g161
g2
Ntp991
Rp992
(dp993
g14
I00
sg32
I01
sg15
I00
sg965
g0
(g854
g2
Ntp994
Rp995
(dp996
g14
I00
sg32
I01
sg71
F-1.075824
sg15
I00
sbsg969
g0
(g854
g2
Ntp997
Rp998
(dp999
g14
I00
sg32
I01
sg71
F6.25
sg15
I00
sbsg973
g0
(g854
g2
Ntp1000
Rp1001
(dp1002
g14
I00
sg32
I01
sg71
F9.109694
sg15
I00
sbsg11
(lp1003
g965
ag969
ag973
asbatp1004
Rp1005
(dp1006
g14
I00
sg32
I01
sg15
I00
sg33
I1
sbsg15
I00
sg16
I23
sg17
S'/cvmfs/cms.cern.ch/slc7_amd64_gcc700/cms/cmssw-patch/CMSSW_10_6_4_patch1/python/CalibCalorimetry/HcalPlugins/HcalTimeSlew_cff.py'
p1007
sg150
g0
(g67
g2
Ntp1008
Rp1009
(dp1010
g14
I00
sg32
I01
sg71
S'HBHE'
p1011
sg15
I00
sbsg34
g842
sg35
g842
sbsS'HcalGeometryFromDBEP'
p1012
g0
(g7
g2
Ntp1013
Rp1014
(dp1015
g11
(lp1016
g421
asg14
I00
sg15
I01
sg16
I56
sg17
g18
sg34
g1012
sg421
g0
(g82
g2
Ntp1017
Rp1018
(dp1019
g14
I00
sg32
I01
sg71
I01
sg15
I01
sbsg35
g1012
sbsS'HFRecalParameterBlock'
p1020
g0
(g161
g2
Ntp1021
Rp1022
(dp1023
g14
I00
sg32
I01
sg15
I00
sS'HFdepthTwoParameterA'
p1024
g0
(cFWCore.ParameterSet.Types
vdouble
p1025
g20
(lp1026
F0.002861
aF0.004168
aF0.0064
aF0.008388
aF0.011601
aF0.014425
aF0.018633
aF0.023232
aF0.028274
aF0.035447
aF0.051579
aF0.086593
atp1027
Rp1028
(dp1029
g14
I00
sg32
I01
sg15
I00
sbsS'HFdepthOneParameterA'
p1030
g0
(g1025
g20
(lp1031
F0.004123
aF0.00602
aF0.008201
aF0.010489
aF0.013379
aF0.016997
aF0.021464
aF0.027371
aF0.034195
aF0.044807
aF0.058939
aF0.125497
atp1032
Rp1033
(dp1034
g14
I00
sg32
I01
sg15
I00
sbsS'HFdepthOneParameterB'
p1035
g0
(g1025
g20
(lp1036
F-4e-06
aF-2e-06
aF0.0
aF4e-06
aF1.5e-05
aF2.6e-05
aF6.3e-05
aF8.4e-05
aF0.00016
aF0.000107
aF0.000425
aF0.000209
atp1037
Rp1038
(dp1039
g14
I00
sg32
I01
sg15
I00
sbsS'HFdepthTwoParameterB'
p1040
g0
(g1025
g20
(lp1041
F-2e-06
aF-0.0
aF-7e-06
aF-6e-06
aF-2e-06
aF1e-06
aF1.9e-05
aF3.1e-05
aF6.7e-05
aF1.2e-05
aF0.000157
aF-3e-06
atp1042
Rp1043
(dp1044
g14
I00
sg32
I01
sg15
I00
sbsg11
(lp1045
g1030
ag1035
ag1040
ag1024
asg34
g1020
sbsS'trackerGeometryDB'
p1046
g0
(g7
g2
Ntp1047
Rp1048
(dp1049
g11
(lp1050
g150
aS'fromDDD'
p1051
ag421
aS'alignmentsLabel'
p1052
asg14
I00
sg150
g0
(g67
g2
Ntp1053
Rp1054
(dp1055
g14
I00
sg32
I01
sg71
g72
sg15
I00
sbsg15
I00
sg1052
g0
(g67
g2
Ntp1056
Rp1057
(dp1058
g14
I00
sg32
I01
sg71
g72
sg15
I00
sbsg17
g18
sg16
I56
sg34
g1046
sg1051
g0
(g82
g2
Ntp1059
Rp1060
(dp1061
g14
I00
sg32
I01
sg71
I00
sg15
I00
sbsg421
g0
(g82
g2
Ntp1062
Rp1063
(dp1064
g14
I00
sg32
I01
sg71
I01
sg15
I00
sbsg35
S'TrackerDigiGeometryESModule'
p1065
sbsS'eegeom'
p1066
g0
(g477
g2
Ntp1067
Rp1068
(dp1069
g11
(lp1070
S'iovIsRunNotTime'
p1071
aS'recordName'
p1072
aS'firstValid'
p1073
asg14
I00
sg15
I00
sg16
I6
sg1072
g0
(g67
g2
Ntp1074
Rp1075
(dp1076
g14
I00
sg32
I01
sg71
S'EcalMappingRcd'
p1077
sg15
I00
sbsg17
S'/cvmfs/cms.cern.ch/slc7_amd64_gcc700/cms/cmssw-patch/CMSSW_10_6_4_patch1/python/Geometry/EcalMapping/EcalMappingRecord_cfi.py'
p1078
sg1073
g0
(cFWCore.ParameterSet.Types
vuint32
p1079
g20
(lp1080
I1
atp1081
Rp1082
(dp1083
g14
I00
sg32
I01
sg15
I00
sbsg34
g1066
sg1071
g0
(g82
g2
Ntp1084
Rp1085
(dp1086
g14
I00
sg32
I01
sg71
I01
sg15
I00
sbsg35
S'EmptyESSource'
p1087
sbsS'_Process__vpsets'
p1088
(dp1089
sS'EcalTrigTowerConstituentsMapBuilder'
p1090
g0
(g7
g2
Ntp1091
Rp1092
(dp1093
g11
(lp1094
S'MapFile'
p1095
asg14
I00
sg15
I00
sg1095
g0
(g67
g2
Ntp1096
Rp1097
(dp1098
g14
I00
sg32
I00
sg71
S'Geometry/EcalMapping/data/EndCap_TTMap.txt'
p1099
sg15
I00
sbsg17
g18
sg16
I56
sg34
g1090
sg35
g1090
sbsS'siStripBackPlaneCorrectionDepESProducer'
p1100
g0
(g7
g2
Ntp1101
Rp1102
(dp1103
g11
(lp1104
S'LatencyRecord'
p1105
aS'BackPlaneCorrectionDeconvMode'
p1106
aS'BackPlaneCorrectionPeakMode'
p1107
asg14
I00
sg15
I00
sg16
I56
sg17
g18
sg1105
g0
(g161
g2
Ntp1108
Rp1109
(dp1110
g14
I00
sg32
I01
sg15
I00
sg123
g0
(g67
g2
Ntp1111
Rp1112
(dp1113
g14
I00
sg32
I00
sg71
g72
sg15
I00
sbsg451
g0
(g67
g2
Ntp1114
Rp1115
(dp1116
g14
I00
sg32
I01
sg71
S'SiStripLatencyRcd'
p1117
sg15
I00
sbsg11
(lp1118
g451
ag123
asbsg1107
g0
(g161
g2
Ntp1119
Rp1120
(dp1121
g14
I00
sg32
I01
sg15
I00
sg123
g0
(g67
g2
Ntp1122
Rp1123
(dp1124
g14
I00
sg32
I00
sg71
S'peak'
p1125
sg15
I00
sbsg451
g0
(g67
g2
Ntp1126
Rp1127
(dp1128
g14
I00
sg32
I01
sg71
S'SiStripBackPlaneCorrectionRcd'
p1129
sg15
I00
sbsg11
(lp1130
g451
ag123
asbsg34
g1100
sg1106
g0
(g161
g2
Ntp1131
Rp1132
(dp1133
g14
I00
sg32
I01
sg15
I00
sg123
g0
(g67
g2
Ntp1134
Rp1135
(dp1136
g14
I00
sg32
I00
sg71
S'deconvolution'
p1137
sg15
I00
sbsg451
g0
(g67
g2
Ntp1138
Rp1139
(dp1140
g14
I00
sg32
I01
sg71
g1129
sg15
I00
sbsg11
(lp1141
g451
ag123
asbsg35
S'SiStripBackPlaneCorrectionDepESProducer'
p1142
sbsS'_Process__switchproducers'
p1143
(dp1144
sS'analyzer'
p1145
g0
(cFWCore.ParameterSet.Modules
EDAnalyzer
p1146
g2
Ntp1147
Rp1148
(dp1149
g11
(lp1150
S'beamSpotSrc'
p1151
aS'jets2'
p1152
aS'packedCandSrc'
p1153
aS'lostTracksSrc'
p1154
aS'vertexSrc'
p1155
aS'doTrack'
p1156
aS'trackPtMin'
p1157
asg14
I00
sg1151
g0
(g73
g2
Ntp1158
Rp1159
(dp1160
g14
I00
sg32
I00
sg15
I00
sg77
S'offlineBeamSpot'
p1161
sg80
g72
sg79
g72
sbsg1152
g0
(g73
g2
Ntp1162
Rp1163
(dp1164
g14
I00
sg32
I01
sg15
I00
sg77
S'slimmedJetsPuppi'
p1165
sg80
g72
sg79
g72
sbsg15
I00
sg16
I43
sg17
g65
sg1157
g0
(g854
g2
Ntp1166
Rp1167
(dp1168
g14
I00
sg32
I00
sg71
F0.01
sg15
I00
sbsg1155
g0
(g73
g2
Ntp1169
Rp1170
(dp1171
g14
I00
sg32
I01
sg15
I00
sg77
S'offlineSlimmedPrimaryVertices'
p1172
sg80
g72
sg79
g72
sbsg1156
g0
(g82
g2
Ntp1173
Rp1174
(dp1175
g14
I00
sg32
I00
sg71
I01
sg15
I00
sbsg34
g1145
sg1154
g0
(g73
g2
Ntp1176
Rp1177
(dp1178
g14
I00
sg32
I01
sg15
I00
sg77
S'lostTracks'
p1179
sg80
g72
sg79
g72
sbsg35
S'TrackAnalyzer'
p1180
sg1153
g0
(g73
g2
Ntp1181
Rp1182
(dp1183
g14
I00
sg32
I01
sg15
I00
sg77
S'packedPFCandidates'
p1184
sg80
g72
sg79
g72
sbsbsS'_Process__esprefers'
p1185
(dp1186
S'es_prefer_hcalHardcode'
p1187
g0
(cFWCore.ParameterSet.Modules
ESPrefer
p1188
g2
Ntp1189
Rp1190
(dp1191
g11
(lp1192
sg14
I00
sg15
I00
sS'_targetLabel'
p1193
S'es_hardcode'
p1194
sg16
I92
sg17
g18
sg34
g1187
sg35
S'HcalHardcodeCalibrations'
p1195
sbssS'_Process__isStrict'
p1196
I00
sS'HepPDTESSource'
p1197
g0
(g477
g2
Ntp1198
Rp1199
(dp1200
g11
(lp1201
S'pdtFileName'
p1202
asg14
I00
sg1202
g0
(cFWCore.ParameterSet.Types
FileInPath
p1203
g2
Ntp1204
Rp1205
(dp1206
g14
I00
sg32
I01
sg71
S'SimGeneral/HepPDTESSource/data/pythiaparticle.tbl'
p1207
sg15
I00
sbsg15
I00
sg16
I4
sg17
S'/cvmfs/cms.cern.ch/slc7_amd64_gcc700/cms/cmssw-patch/CMSSW_10_6_4_patch1/python/SimGeneral/HepPDTESSource/pythiapdt_cfi.py'
p1208
sg34
g1197
sg35
g1197
sbsS'_Process__outputmodules'
p1209
(dp1210
sS'_Process__analyzers'
p1211
(dp1212
g1145
g1148
ssS'idealForDigiTrackerGeometry'
p1213
g0
(g7
g2
Ntp1214
Rp1215
(dp1216
g11
(lp1217
g150
ag1051
ag421
ag1052
asg14
I00
sg150
g0
(g67
g2
Ntp1218
Rp1219
(dp1220
g14
I00
sg32
I01
sg71
S'idealForDigi'
p1221
sg15
I01
sbsg15
I01
sg1052
g0
(g67
g2
Ntp1222
Rp1223
(dp1224
g14
I00
sg32
I01
sg71
S'fakeForIdeal'
p1225
sg15
I01
sbsg17
S'/cvmfs/cms.cern.ch/slc7_amd64_gcc700/cms/cmssw-patch/CMSSW_10_6_4_patch1/python/Geometry/TrackerGeometryBuilder/idealForDigiTrackerGeometryDB_cff.py'
p1226
sg16
I8
sg34
g1213
sg1051
g0
(g82
g2
Ntp1227
Rp1228
(dp1229
g14
I00
sg32
I01
sg71
I00
sg15
I00
sbsg421
g0
(g82
g2
Ntp1230
Rp1231
(dp1232
g14
I00
sg32
I01
sg71
I00
sg15
I01
sbsg35
g1065
sbsS'_Process__looper'
p1233
NsS'_Process__tasks'
p1234
(dp1235
sS'_Process__paths'
p1236
g0
(g553
g554
(dp1237
S'runAnalyzer'
p1238
g0
(cFWCore.ParameterSet.SequenceTypes
Path
p1239
g2
Ntp1240
Rp1241
(dp1242
g14
I00
sg43
g0
(g44
g2
Ntp1243
Rp1244
(dp1245
g48
(lp1246
g41
ag1148
asbsg34
g1238
sg15
I00
sg90
g0
(g91
g2
Ntp1247
Rp1248
(dp1249
g95
(dp1250
sg97
(lp1251
Nag1251
ag1251
asbsbstp1252
Rp1253
(dp1254
g559
(lp1255
g1238
asbsS'MuonNumberingInitialization'
p1256
g0
(g7
g2
Ntp1257
Rp1258
(dp1259
g11
(lp1260
sg14
I00
sg15
I00
sg16
I56
sg17
g18
sg34
g1256
sg35
g1256
sbsS'DTGeometryESModule'
p1261
g0
(g7
g2
Ntp1262
Rp1263
(dp1264
g11
(lp1265
g150
ag1051
ag421
ag1052
asg14
I00
sg150
g0
(g67
g2
Ntp1266
Rp1267
(dp1268
g14
I00
sg32
I01
sg71
g72
sg15
I00
sbsg15
I00
sg1052
g0
(g67
g2
Ntp1269
Rp1270
(dp1271
g14
I00
sg32
I01
sg71
g72
sg15
I00
sbsg17
g18
sg16
I56
sg34
g1261
sg1051
g0
(g82
g2
Ntp1272
Rp1273
(dp1274
g14
I00
sg32
I01
sg71
I00
sg15
I00
sbsg421
g0
(g82
g2
Ntp1275
Rp1276
(dp1277
g14
I00
sg32
I01
sg71
I01
sg15
I00
sbsg35
g1261
sbsS'VolumeBasedMagneticFieldESProducer'
p1278
g0
(g7
g2
Ntp1279
Rp1280
(dp1281
g11
(lp1282
S'valueOverride'
p1283
aS'debugBuilder'
p1284
ag123
asg14
I00
sg1283
g0
(g522
g2
Ntp1285
Rp1286
(dp1287
g14
I00
sg32
I01
sg71
I18268
sg15
I01
sbsg16
I56
sg17
g18
sg123
g0
(g67
g2
Ntp1288
Rp1289
(dp1290
g14
I00
sg32
I00
sg71
g72
sg15
I00
sbsg1284
g0
(g82
g2
Ntp1291
Rp1292
(dp1293
g14
I00
sg32
I00
sg71
I00
sg15
I00
sbsg34
g1278
sg35
S'VolumeBasedMagneticFieldESProducerFromDB'
p1294
sg15
I01
sbsS'CaloTopologyBuilder'
p1295
g0
(g7
g2
Ntp1296
Rp1297
(dp1298
g11
(lp1299
sg14
I00
sg15
I00
sg16
I56
sg17
g18
sg34
g1295
sg35
g1295
sbsS'SiStripRecHitMatcherESProducer'
p1300
g0
(g7
g2
Ntp1301
Rp1302
(dp1303
g11
(lp1304
S'PreFilter'
p1305
aS'ComponentName'
p1306
aS'NSigmaInside'
p1307
asg14
I00
sg15
I00
sg17
g18
sg1306
g0
(g67
g2
Ntp1308
Rp1309
(dp1310
g14
I00
sg32
I01
sg71
S'StandardMatcher'
p1311
sg15
I00
sbsg1305
g0
(g82
g2
Ntp1312
Rp1313
(dp1314
g14
I00
sg32
I01
sg71
I00
sg15
I00
sbsg16
I56
sg1307
g0
(g854
g2
Ntp1315
Rp1316
(dp1317
g14
I00
sg32
I01
sg71
F3.0
sg15
I00
sbsg34
g1300
sg35
g1300
sbsS'_Process__psets'
p1318
(dp1319
S'maxEvents'
p1320
g0
(g161
g2
Ntp1321
Rp1322
(dp1323
g14
I00
sg32
I00
sg15
I00
sg11
(lp1324
S'input'
p1325
asg34
g1320
sg1325
g0
(g522
g2
Ntp1326
Rp1327
(dp1328
g14
I00
sg32
I00
sg71
I-1
sg15
I00
sbsbsg1020
g1022
ssS'_Process__essources'
p1329
(dp1330
g1197
g1199
sg1194
g0
(g477
g2
Ntp1331
Rp1332
(dp1333
g14
I00
sg16
I172
sS'useHEUpgrade'
p1334
g0
(g82
g2
Ntp1335
Rp1336
(dp1337
g14
I00
sg32
I01
sg71
I00
sg15
I00
sbsS'HBRecalibration'
p1338
g0
(g82
g2
Ntp1339
Rp1340
(dp1341
g14
I00
sg32
I01
sg71
I00
sg15
I00
sbsS'useLayer0Weight'
p1342
g0
(g82
g2
Ntp1343
Rp1344
(dp1345
g14
I00
sg32
I01
sg71
I00
sg15
I00
sbsS'HEmeanenergies'
p1346
g0
(g1203
g2
Ntp1347
Rp1348
(dp1349
g14
I00
sg32
I01
sg71
S'CalibCalorimetry/HcalPlugins/data/meanenergiesHE.txt'
p1350
sg15
I00
sbsg1020
g1022
sS'heUpgrade'
p1351
g0
(g161
g2
Ntp1352
Rp1353
(dp1354
g14
I00
sg32
I01
sS'qieType'
p1355
g0
(g522
g2
Ntp1356
Rp1357
(dp1358
g14
I00
sg32
I01
sg71
I2
sg15
I00
sbsg15
I00
sS'pedestalWidth'
p1359
g0
(g854
g2
Ntp1360
Rp1361
(dp1362
g14
I00
sg32
I01
sg71
F1.5
sg15
I00
sbsS'recoShape'
p1363
g0
(g522
g2
Ntp1364
Rp1365
(dp1366
g14
I00
sg32
I01
sg71
I206
sg15
I00
sbsS'zsThreshold'
p1367
g0
(g522
g2
Ntp1368
Rp1369
(dp1370
g14
I00
sg32
I01
sg71
I16
sg15
I00
sbsS'darkCurrent'
p1371
g0
(g1025
g20
(lp1372
F0.01
aF0.015
atp1373
Rp1374
(dp1375
g14
I00
sg32
I01
sg15
I00
sbsS'qieOffset'
p1376
g0
(g1025
g20
(lp1377
F0.0
aF0.0
aF0.0
aF0.0
atp1378
Rp1379
(dp1380
g14
I00
sg32
I01
sg15
I00
sbsS'qieSlope'
p1381
g0
(g1025
g20
(lp1382
F0.05376
aF0.05376
aF0.05376
aF0.05376
atp1383
Rp1384
(dp1385
g14
I00
sg32
I01
sg15
I00
sbsS'radiationDamage'
p1386
g0
(g161
g2
Ntp1387
Rp1388
(dp1389
g14
I00
sg32
I01
sS'temperatureNew'
p1390
g0
(g854
g2
Ntp1391
Rp1392
(dp1393
g14
I00
sg32
I01
sg71
I5
sg15
I00
sbsg15
I00
sS'depVsNeutrons'
p1394
g0
(g1025
g20
(lp1395
F5.543e-10
aF8.012e-10
atp1396
Rp1397
(dp1398
g14
I00
sg32
I01
sg15
I00
sbsS'temperatureBase'
p1399
g0
(g854
g2
Ntp1400
Rp1401
(dp1402
g14
I00
sg32
I01
sg71
I20
sg15
I00
sbsS'depVsTemp'
p1403
g0
(g854
g2
Ntp1404
Rp1405
(dp1406
g14
I00
sg32
I01
sg71
F0.0631
sg15
I00
sbsS'intlumiOffset'
p1407
g0
(g854
g2
Ntp1408
Rp1409
(dp1410
g14
I00
sg32
I01
sg71
I75
sg15
I00
sbsg11
(lp1411
g1390
ag1394
ag1399
ag1403
ag1407
aS'intlumiToNeutrons'
p1412
asg1412
g0
(g854
g2
Ntp1413
Rp1414
(dp1415
g14
I00
sg32
I01
sg71
F29200000.0
sg15
I00
sbsbsS'doRadiationDamage'
p1416
g0
(g82
g2
Ntp1417
Rp1418
(dp1419
g14
I00
sg32
I01
sg71
I01
sg15
I00
sbsg11
(lp1420
g1355
ag1359
ag1363
ag1367
aS'photoelectronsToAnalog'
p1421
ag1376
ag1381
ag1386
ag1416
ag1371
aS'pedestal'
p1422
aS'mcShape'
p1423
aS'gainWidth'
p1424
aS'gain'
p1425
asg1421
g0
(g854
g2
Ntp1426
Rp1427
(dp1428
g14
I00
sg32
I01
sg71
F40.0
sg15
I00
sbsg1422
g0
(g854
g2
Ntp1429
Rp1430
(dp1431
g14
I00
sg32
I01
sg71
F17.3
sg15
I00
sbsg1423
g0
(g522
g2
Ntp1432
Rp1433
(dp1434
g14
I00
sg32
I01
sg71
I206
sg15
I00
sbsg1424
g0
(g1025
g20
(lp1435
I0
atp1436
Rp1437
(dp1438
g14
I00
sg32
I01
sg15
I00
sbsg1425
g0
(g1025
g20
(lp1439
F0.0006252
atp1440
Rp1441
(dp1442
g14
I00
sg32
I01
sg15
I00
sbsbsg11
(lp1443
g488
ag1338
ag1342
ag1346
ag1020
ag1351
aS'useIeta18depth1'
p1444
aS'killHE'
p1445
aS'useHBUpgrade'
p1446
aS'hbUpgrade'
p1447
aS'testHEPlan1'
p1448
aS'iLumi'
p1449
aS'testHFQIE10'
p1450
aS'HBmeanenergies'
p1451
ag1334
aS'GainWidthsForTrigPrims'
p1452
aS'HBreCalibCutoff'
p1453
aS'HFRecalibration'
p1454
aS'ho'
p1455
aS'hb'
p1456
aS'hf'
p1457
aS'he'
p1458
aS'HERecalibration'
p1459
aS'useHFUpgrade'
p1460
aS'HEreCalibCutoff'
p1461
aS'SiPMCharacteristics'
p1462
aS'useHOUpgrade'
p1463
aS'hfUpgrade'
p1464
asg17
S'/cvmfs/cms.cern.ch/slc7_amd64_gcc700/cms/cmssw-patch/CMSSW_10_6_4_patch1/python/CalibCalorimetry/HcalPlugins/Hcal_Conditions_forGlobalTag_cff.py'
p1465
sg1444
g0
(g82
g2
Ntp1466
Rp1467
(dp1468
g14
I00
sg32
I01
sg71
I01
sg15
I00
sbsg1445
g0
(g82
g2
Ntp1469
Rp1470
(dp1471
g14
I00
sg32
I01
sg71
I00
sg15
I00
sbsg1446
g0
(g82
g2
Ntp1472
Rp1473
(dp1474
g14
I00
sg32
I01
sg71
I00
sg15
I00
sbsg1447
g0
(g161
g2
Ntp1475
Rp1476
(dp1477
g14
I00
sg32
I01
sg1355
g0
(g522
g2
Ntp1478
Rp1479
(dp1480
g14
I00
sg32
I01
sg71
I2
sg15
I00
sbsg15
I00
sg1359
g0
(g854
g2
Ntp1481
Rp1482
(dp1483
g14
I00
sg32
I01
sg71
F1.5
sg15
I00
sbsg1363
g0
(g522
g2
Ntp1484
Rp1485
(dp1486
g14
I00
sg32
I01
sg71
I206
sg15
I00
sbsg1367
g0
(g522
g2
Ntp1487
Rp1488
(dp1489
g14
I00
sg32
I01
sg71
I16
sg15
I00
sbsg1371
g0
(g1025
g20
(lp1490
F0.01
aF0.015
atp1491
Rp1492
(dp1493
g14
I00
sg32
I01
sg15
I00
sbsg1376
g0
(g1025
g20
(lp1494
F0.0
aF0.0
aF0.0
aF0.0
atp1495
Rp1496
(dp1497
g14
I00
sg32
I01
sg15
I00
sbsg1381
g0
(g1025
g20
(lp1498
F0.05376
aF0.05376
aF0.05376
aF0.05376
atp1499
Rp1500
(dp1501
g14
I00
sg32
I01
sg15
I00
sbsg1386
g0
(g161
g2
Ntp1502
Rp1503
(dp1504
g14
I00
sg32
I01
sg1390
g0
(g854
g2
Ntp1505
Rp1506
(dp1507
g14
I00
sg32
I01
sg71
I-5
sg15
I00
sbsg15
I00
sg1394
g0
(g1025
g20
(lp1508
F5.543e-10
aF8.012e-10
atp1509
Rp1510
(dp1511
g14
I00
sg32
I01
sg15
I00
sbsg1399
g0
(g854
g2
Ntp1512
Rp1513
(dp1514
g14
I00
sg32
I01
sg71
I20
sg15
I00
sbsg1403
g0
(g854
g2
Ntp1515
Rp1516
(dp1517
g14
I00
sg32
I01
sg71
F0.0631
sg15
I00
sbsg1407
g0
(g854
g2
Ntp1518
Rp1519
(dp1520
g14
I00
sg32
I01
sg71
I150
sg15
I00
sbsg11
(lp1521
g1390
ag1394
ag1399
ag1403
ag1407
ag1412
asg1412
g0
(g854
g2
Ntp1522
Rp1523
(dp1524
g14
I00
sg32
I01
sg71
F367000000.0
sg15
I00
sbsbsg1416
g0
(g82
g2
Ntp1525
Rp1526
(dp1527
g14
I00
sg32
I01
sg71
I01
sg15
I00
sbsg11
(lp1528
g1355
ag1359
ag1363
ag1367
ag1421
ag1376
ag1381
ag1386
ag1416
ag1371
ag1422
ag1423
ag1424
ag1425
asg1421
g0
(g854
g2
Ntp1529
Rp1530
(dp1531
g14
I00
sg32
I01
sg71
F40.0
sg15
I00
sbsg1422
g0
(g854
g2
Ntp1532
Rp1533
(dp1534
g14
I00
sg32
I01
sg71
F17.3
sg15
I00
sbsg1423
g0
(g522
g2
Ntp1535
Rp1536
(dp1537
g14
I00
sg32
I01
sg71
I206
sg15
I00
sbsg1424
g0
(g1025
g20
(lp1538
I0
atp1539
Rp1540
(dp1541
g14
I00
sg32
I01
sg15
I00
sbsg1425
g0
(g1025
g20
(lp1542
F0.0006252
atp1543
Rp1544
(dp1545
g14
I00
sg32
I01
sg15
I00
sbsbsg35
g1195
sg1448
g0
(g82
g2
Ntp1546
Rp1547
(dp1548
g14
I00
sg32
I01
sg71
I00
sg15
I00
sbsg1449
g0
(g854
g2
Ntp1549
Rp1550
(dp1551
g14
I00
sg32
I01
sg71
F-1.0
sg15
I00
sbsg1450
g0
(g82
g2
Ntp1552
Rp1553
(dp1554
g14
I00
sg32
I01
sg71
I00
sg15
I00
sbsg1451
g0
(g1203
g2
Ntp1555
Rp1556
(dp1557
g14
I00
sg32
I01
sg71
S'CalibCalorimetry/HcalPlugins/data/meanenergiesHB.txt'
p1558
sg15
I00
sbsg488
g0
(g19
g20
(lp1559
S'GainWidths'
p1560
atp1561
Rp1562
(dp1563
g14
I00
sg32
I00
sg15
I00
sg33
I1
sbsg1452
g0
(g82
g2
Ntp1564
Rp1565
(dp1566
g14
I00
sg32
I01
sg71
I00
sg15
I00
sbsg1453
g0
(g854
g2
Ntp1567
Rp1568
(dp1569
g14
I00
sg32
I01
sg71
F20.0
sg15
I00
sbsg1454
g0
(g82
g2
Ntp1570
Rp1571
(dp1572
g14
I00
sg32
I01
sg71
I00
sg15
I00
sbsg1455
g0
(g161
g2
Ntp1573
Rp1574
(dp1575
g14
I00
sg32
I01
sg1355
g0
(g522
g2
Ntp1576
Rp1577
(dp1578
g14
I00
sg32
I01
sg71
I0
sg15
I00
sbsg15
I00
sg1359
g0
(g854
g2
Ntp1579
Rp1580
(dp1581
g14
I00
sg32
I01
sg71
F0.6285
sg15
I00
sbsg1363
g0
(g522
g2
Ntp1582
Rp1583
(dp1584
g14
I00
sg32
I01
sg71
I201
sg15
I00
sbsg1367
g0
(g522
g2
Ntp1585
Rp1586
(dp1587
g14
I00
sg32
I01
sg71
I24
sg15
I00
sbsg1371
g0
(g1025
g20
(lp1588
F0.0
atp1589
Rp1590
(dp1591
g14
I00
sg32
I01
sg15
I00
sbsg1376
g0
(g1025
g20
(lp1592
F-0.44
aF1.4
aF7.1
aF38.5
atp1593
Rp1594
(dp1595
g14
I00
sg32
I01
sg15
I00
sbsg1381
g0
(g1025
g20
(lp1596
F0.907
aF0.915
aF0.92
aF0.921
atp1597
Rp1598
(dp1599
g14
I00
sg32
I01
sg15
I00
sbsg1425
g0
(g1025
g20
(lp1600
F0.006
aF0.0087
atp1601
Rp1602
(dp1603
g14
I00
sg32
I01
sg15
I00
sbsg1416
g0
(g82
g2
Ntp1604
Rp1605
(dp1606
g14
I00
sg32
I01
sg71
I00
sg15
I00
sbsg11
(lp1607
g1355
ag1359
ag1363
ag1367
ag1421
ag1376
ag1381
ag1425
ag1416
ag1371
ag1422
ag1423
ag1424
asg1421
g0
(g854
g2
Ntp1608
Rp1609
(dp1610
g14
I00
sg32
I01
sg71
F4.0
sg15
I00
sbsg1422
g0
(g854
g2
Ntp1611
Rp1612
(dp1613
g14
I00
sg32
I01
sg71
F12.06
sg15
I00
sbsg1423
g0
(g522
g2
Ntp1614
Rp1615
(dp1616
g14
I00
sg32
I01
sg71
I201
sg15
I00
sbsg1424
g0
(g1025
g20
(lp1617
F0.0
aF0.0
atp1618
Rp1619
(dp1620
g14
I00
sg32
I01
sg15
I00
sbsbsg1456
g0
(g161
g2
Ntp1621
Rp1622
(dp1623
g14
I00
sg32
I01
sg1355
g0
(g522
g2
Ntp1624
Rp1625
(dp1626
g14
I00
sg32
I01
sg71
I0
sg15
I00
sbsg15
I00
sg1359
g0
(g854
g2
Ntp1627
Rp1628
(dp1629
g14
I00
sg32
I01
sg71
F0.809
sg15
I00
sbsg1363
g0
(g522
g2
Ntp1630
Rp1631
(dp1632
g14
I00
sg32
I01
sg71
I105
sg15
I00
sbsg1367
g0
(g522
g2
Ntp1633
Rp1634
(dp1635
g14
I00
sg32
I01
sg71
I8
sg15
I00
sbsg1371
g0
(g1025
g20
(lp1636
F0.0
atp1637
Rp1638
(dp1639
g14
I00
sg32
I01
sg15
I00
sbsg1376
g0
(g1025
g20
(lp1640
F-0.49
aF1.8
aF7.2
aF37.9
atp1641
Rp1642
(dp1643
g14
I00
sg32
I01
sg15
I00
sbsg1381
g0
(g1025
g20
(lp1644
F0.912
aF0.917
aF0.922
aF0.923
atp1645
Rp1646
(dp1647
g14
I00
sg32
I01
sg15
I00
sbsg1425
g0
(g1025
g20
(lp1648
F0.19
atp1649
Rp1650
(dp1651
g14
I00
sg32
I01
sg15
I00
sbsg1416
g0
(g82
g2
Ntp1652
Rp1653
(dp1654
g14
I00
sg32
I01
sg71
I00
sg15
I00
sbsg11
(lp1655
g1355
ag1359
ag1363
ag1367
ag1421
ag1376
ag1381
ag1425
ag1416
ag1371
ag1422
ag1423
ag1424
asg1421
g0
(g854
g2
Ntp1656
Rp1657
(dp1658
g14
I00
sg32
I01
sg71
F0.3305
sg15
I00
sbsg1422
g0
(g854
g2
Ntp1659
Rp1660
(dp1661
g14
I00
sg32
I01
sg71
F3.285
sg15
I00
sbsg1423
g0
(g522
g2
Ntp1662
Rp1663
(dp1664
g14
I00
sg32
I01
sg71
I125
sg15
I00
sbsg1424
g0
(g1025
g20
(lp1665
F0.0
atp1666
Rp1667
(dp1668
g14
I00
sg32
I01
sg15
I00
sbsbsg1457
g0
(g161
g2
Ntp1669
Rp1670
(dp1671
g14
I00
sg32
I01
sg1355
g0
(g522
g2
Ntp1672
Rp1673
(dp1674
g14
I00
sg32
I01
sg71
I0
sg15
I00
sbsg15
I00
sg1359
g0
(g854
g2
Ntp1675
Rp1676
(dp1677
g14
I00
sg32
I01
sg71
F2.516
sg15
I00
sbsg1363
g0
(g522
g2
Ntp1678
Rp1679
(dp1680
g14
I00
sg32
I01
sg71
I301
sg15
I00
sbsg1367
g0
(g522
g2
Ntp1681
Rp1682
(dp1683
g14
I00
sg32
I01
sg71
I-9999
sg15
I00
sbsg1371
g0
(g1025
g20
(lp1684
F0.0
atp1685
Rp1686
(dp1687
g14
I00
sg32
I01
sg15
I00
sbsg1376
g0
(g1025
g20
(lp1688
F-0.87
aF1.4
aF7.8
aF-29.6
atp1689
Rp1690
(dp1691
g14
I00
sg32
I01
sg15
I00
sbsg1381
g0
(g1025
g20
(lp1692
F0.359
aF0.358
aF0.36
aF0.367
atp1693
Rp1694
(dp1695
g14
I00
sg32
I01
sg15
I00
sbsg1425
g0
(g1025
g20
(lp1696
F0.14
aF0.135
atp1697
Rp1698
(dp1699
g14
I00
sg32
I01
sg15
I00
sbsg1416
g0
(g82
g2
Ntp1700
Rp1701
(dp1702
g14
I00
sg32
I01
sg71
I00
sg15
I00
sbsg11
(lp1703
g1355
ag1359
ag1363
ag1367
ag1421
ag1376
ag1381
ag1425
ag1416
ag1371
ag1422
ag1423
ag1424
asg1421
g0
(g854
g2
Ntp1704
Rp1705
(dp1706
g14
I00
sg32
I01
sg71
F0.0
sg15
I00
sbsg1422
g0
(g854
g2
Ntp1707
Rp1708
(dp1709
g14
I00
sg32
I01
sg71
F9.354
sg15
I00
sbsg1423
g0
(g522
g2
Ntp1710
Rp1711
(dp1712
g14
I00
sg32
I01
sg71
I301
sg15
I00
sbsg1424
g0
(g1025
g20
(lp1713
F0.0
aF0.0
atp1714
Rp1715
(dp1716
g14
I00
sg32
I01
sg15
I00
sbsbsg1458
g0
(g161
g2
Ntp1717
Rp1718
(dp1719
g14
I00
sg32
I01
sg1355
g0
(g522
g2
Ntp1720
Rp1721
(dp1722
g14
I00
sg32
I01
sg71
I0
sg15
I00
sbsg15
I00
sg1359
g0
(g854
g2
Ntp1723
Rp1724
(dp1725
g14
I00
sg32
I01
sg71
F0.9698
sg15
I00
sbsg1363
g0
(g522
g2
Ntp1726
Rp1727
(dp1728
g14
I00
sg32
I01
sg71
I105
sg15
I00
sbsg1367
g0
(g522
g2
Ntp1729
Rp1730
(dp1731
g14
I00
sg32
I01
sg71
I9
sg15
I00
sbsg1371
g0
(g1025
g20
(lp1732
F0.0
atp1733
Rp1734
(dp1735
g14
I00
sg32
I01
sg15
I00
sbsg1376
g0
(g1025
g20
(lp1736
F-0.38
aF2.0
aF7.6
aF39.6
atp1737
Rp1738
(dp1739
g14
I00
sg32
I01
sg15
I00
sbsg1381
g0
(g1025
g20
(lp1740
F0.912
aF0.916
aF0.92
aF0.922
atp1741
Rp1742
(dp1743
g14
I00
sg32
I01
sg15
I00
sbsg1425
g0
(g1025
g20
(lp1744
F0.23
atp1745
Rp1746
(dp1747
g14
I00
sg32
I01
sg15
I00
sbsg1416
g0
(g82
g2
Ntp1748
Rp1749
(dp1750
g14
I00
sg32
I01
sg71
I00
sg15
I00
sbsg11
(lp1751
g1355
ag1359
ag1363
ag1367
ag1421
ag1376
ag1381
ag1425
ag1416
ag1371
ag1422
ag1423
ag1424
asg1421
g0
(g854
g2
Ntp1752
Rp1753
(dp1754
g14
I00
sg32
I01
sg71
F0.3305
sg15
I00
sbsg1422
g0
(g854
g2
Ntp1755
Rp1756
(dp1757
g14
I00
sg32
I01
sg71
F3.163
sg15
I00
sbsg1423
g0
(g522
g2
Ntp1758
Rp1759
(dp1760
g14
I00
sg32
I01
sg71
I125
sg15
I00
sbsg1424
g0
(g1025
g20
(lp1761
I0
atp1762
Rp1763
(dp1764
g14
I00
sg32
I01
sg15
I00
sbsbsg15
I00
sg1459
g0
(g82
g2
Ntp1765
Rp1766
(dp1767
g14
I00
sg32
I01
sg71
I00
sg15
I00
sbsg1460
g0
(g82
g2
Ntp1768
Rp1769
(dp1770
g14
I00
sg32
I01
sg71
I00
sg15
I00
sbsg1461
g0
(g854
g2
Ntp1771
Rp1772
(dp1773
g14
I00
sg32
I01
sg71
F20.0
sg15
I00
sbsg1462
g0
(g446
g20
(lp1774
g0
(g161
g2
Ntp1775
Rp1776
(dp1777
g14
I00
sg32
I01
sg15
I00
sS'crosstalk'
p1778
g0
(g854
g2
Ntp1779
Rp1780
(dp1781
g14
I00
sg32
I01
sg71
F0.0
sg15
I00
sbsS'nonlin1'
p1782
g0
(g854
g2
Ntp1783
Rp1784
(dp1785
g14
I00
sg32
I01
sg71
F1.0
sg15
I00
sbsS'nonlin3'
p1786
g0
(g854
g2
Ntp1787
Rp1788
(dp1789
g14
I00
sg32
I01
sg71
F0.0
sg15
I00
sbsS'nonlin2'
p1790
g0
(g854
g2
Ntp1791
Rp1792
(dp1793
g14
I00
sg32
I01
sg71
F0.0
sg15
I00
sbsg11
(lp1794
g1782
ag1786
ag1790
aS'pixels'
p1795
ag1778
asg1795
g0
(g522
g2
Ntp1796
Rp1797
(dp1798
g14
I00
sg32
I01
sg71
I36000
sg15
I00
sbsbag0
(g161
g2
Ntp1799
Rp1800
(dp1801
g14
I00
sg32
I01
sg15
I00
sg1778
g0
(g854
g2
Ntp1802
Rp1803
(dp1804
g14
I00
sg32
I01
sg71
F0.0
sg15
I00
sbsg1782
g0
(g854
g2
Ntp1805
Rp1806
(dp1807
g14
I00
sg32
I01
sg71
F1.0
sg15
I00
sbsg1786
g0
(g854
g2
Ntp1808
Rp1809
(dp1810
g14
I00
sg32
I01
sg71
F0.0
sg15
I00
sbsg1790
g0
(g854
g2
Ntp1811
Rp1812
(dp1813
g14
I00
sg32
I01
sg71
F0.0
sg15
I00
sbsg11
(lp1814
g1782
ag1786
ag1790
ag1795
ag1778
asg1795
g0
(g522
g2
Ntp1815
Rp1816
(dp1817
g14
I00
sg32
I01
sg71
I2500
sg15
I00
sbsbag0
(g161
g2
Ntp1818
Rp1819
(dp1820
g14
I00
sg32
I01
sg15
I00
sg1778
g0
(g854
g2
Ntp1821
Rp1822
(dp1823
g14
I00
sg32
I01
sg71
F0.17
sg15
I00
sbsg1782
g0
(g854
g2
Ntp1824
Rp1825
(dp1826
g14
I00
sg32
I01
sg71
F1.00985
sg15
I00
sbsg1786
g0
(g854
g2
Ntp1827
Rp1828
(dp1829
g14
I00
sg32
I01
sg71
F2.86282e-10
sg15
I00
sbsg1790
g0
(g854
g2
Ntp1830
Rp1831
(dp1832
g14
I00
sg32
I01
sg71
F7.84089e-06
sg15
I00
sbsg11
(lp1833
g1782
ag1786
ag1790
ag1795
ag1778
asg1795
g0
(g522
g2
Ntp1834
Rp1835
(dp1836
g14
I00
sg32
I01
sg71
I27370
sg15
I00
sbsbag0
(g161
g2
Ntp1837
Rp1838
(dp1839
g14
I00
sg32
I01
sg15
I00
sg1778
g0
(g854
g2
Ntp1840
Rp1841
(dp1842
g14
I00
sg32
I01
sg71
F0.196
sg15
I00
sbsg1782
g0
(g854
g2
Ntp1843
Rp1844
(dp1845
g14
I00
sg32
I01
sg71
F1.00546
sg15
I00
sbsg1786
g0
(g854
g2
Ntp1846
Rp1847
(dp1848
g14
I00
sg32
I01
sg71
F1.27011e-10
sg15
I00
sbsg1790
g0
(g854
g2
Ntp1849
Rp1850
(dp1851
g14
I00
sg32
I01
sg71
F6.40239e-06
sg15
I00
sbsg11
(lp1852
g1782
ag1786
ag1790
ag1795
ag1778
asg1795
g0
(g522
g2
Ntp1853
Rp1854
(dp1855
g14
I00
sg32
I01
sg71
I38018
sg15
I00
sbsbag0
(g161
g2
Ntp1856
Rp1857
(dp1858
g14
I00
sg32
I01
sg15
I00
sg1778
g0
(g854
g2
Ntp1859
Rp1860
(dp1861
g14
I00
sg32
I01
sg71
F0.17
sg15
I00
sbsg1782
g0
(g854
g2
Ntp1862
Rp1863
(dp1864
g14
I00
sg32
I01
sg71
F1.00985
sg15
I00
sbsg1786
g0
(g854
g2
Ntp1865
Rp1866
(dp1867
g14
I00
sg32
I01
sg71
F2.86282e-10
sg15
I00
sbsg1790
g0
(g854
g2
Ntp1868
Rp1869
(dp1870
g14
I00
sg32
I01
sg71
F7.84089e-06
sg15
I00
sbsg11
(lp1871
g1782
ag1786
ag1790
ag1795
ag1778
asg1795
g0
(g522
g2
Ntp1872
Rp1873
(dp1874
g14
I00
sg32
I01
sg71
I27370
sg15
I00
sbsbag0
(g161
g2
Ntp1875
Rp1876
(dp1877
g14
I00
sg32
I01
sg15
I00
sg1778
g0
(g854
g2
Ntp1878
Rp1879
(dp1880
g14
I00
sg32
I01
sg71
F0.196
sg15
I00
sbsg1782
g0
(g854
g2
Ntp1881
Rp1882
(dp1883
g14
I00
sg32
I01
sg71
F1.00546
sg15
I00
sbsg1786
g0
(g854
g2
Ntp1884
Rp1885
(dp1886
g14
I00
sg32
I01
sg71
F1.27011e-10
sg15
I00
sbsg1790
g0
(g854
g2
Ntp1887
Rp1888
(dp1889
g14
I00
sg32
I01
sg71
F6.40239e-06
sg15
I00
sbsg11
(lp1890
g1782
ag1786
ag1790
ag1795
ag1778
asg1795
g0
(g522
g2
Ntp1891
Rp1892
(dp1893
g14
I00
sg32
I01
sg71
I38018
sg15
I00
sbsbag0
(g161
g2
Ntp1894
Rp1895
(dp1896
g14
I00
sg32
I01
sg15
I00
sg1778
g0
(g854
g2
Ntp1897
Rp1898
(dp1899
g14
I00
sg32
I01
sg71
F0.0
sg15
I00
sbsg1782
g0
(g854
g2
Ntp1900
Rp1901
(dp1902
g14
I00
sg32
I01
sg71
F1.0
sg15
I00
sbsg1786
g0
(g854
g2
Ntp1903
Rp1904
(dp1905
g14
I00
sg32
I01
sg71
F0.0
sg15
I00
sbsg1790
g0
(g854
g2
Ntp1906
Rp1907
(dp1908
g14
I00
sg32
I01
sg71
F0.0
sg15
I00
sbsg11
(lp1909
g1782
ag1786
ag1790
ag1795
ag1778
asg1795
g0
(g522
g2
Ntp1910
Rp1911
(dp1912
g14
I00
sg32
I01
sg71
I0
sg15
I00
sbsbatp1913
Rp1914
(dp1915
g14
I00
sg32
I01
sg15
I00
sg33
I1
sbsg34
g1194
sg1463
g0
(g82
g2
Ntp1916
Rp1917
(dp1918
g14
I00
sg32
I01
sg71
I01
sg15
I00
sbsg1464
g0
(g161
g2
Ntp1919
Rp1920
(dp1921
g14
I00
sg32
I01
sg1355
g0
(g522
g2
Ntp1922
Rp1923
(dp1924
g14
I00
sg32
I01
sg71
I1
sg15
I00
sbsg15
I00
sg1359
g0
(g854
g2
Ntp1925
Rp1926
(dp1927
g14
I00
sg32
I01
sg71
F3.33
sg15
I00
sbsg1363
g0
(g522
g2
Ntp1928
Rp1929
(dp1930
g14
I00
sg32
I01
sg71
I301
sg15
I00
sbsg1367
g0
(g522
g2
Ntp1931
Rp1932
(dp1933
g14
I00
sg32
I01
sg71
I-9999
sg15
I00
sbsg1371
g0
(g1025
g20
(lp1934
F0.0
atp1935
Rp1936
(dp1937
g14
I00
sg32
I01
sg15
I00
sbsg1376
g0
(g1025
g20
(lp1938
F0.0697
aF-0.7405
aF12.38
aF-671.9
atp1939
Rp1940
(dp1941
g14
I00
sg32
I01
sg15
I00
sbsg1381
g0
(g1025
g20
(lp1942
F0.297
aF0.298
aF0.298
aF0.313
atp1943
Rp1944
(dp1945
g14
I00
sg32
I01
sg15
I00
sbsg1425
g0
(g1025
g20
(lp1946
F0.14
aF0.135
atp1947
Rp1948
(dp1949
g14
I00
sg32
I01
sg15
I00
sbsg1416
g0
(g82
g2
Ntp1950
Rp1951
(dp1952
g14
I00
sg32
I01
sg71
I00
sg15
I00
sbsg11
(lp1953
g1355
ag1359
ag1363
ag1367
ag1421
ag1376
ag1381
ag1425
ag1416
ag1371
ag1422
ag1423
ag1424
asg1421
g0
(g854
g2
Ntp1954
Rp1955
(dp1956
g14
I00
sg32
I01
sg71
F0.0
sg15
I00
sbsg1422
g0
(g854
g2
Ntp1957
Rp1958
(dp1959
g14
I00
sg32
I01
sg71
F13.33
sg15
I00
sbsg1423
g0
(g522
g2
Ntp1960
Rp1961
(dp1962
g14
I00
sg32
I01
sg71
I301
sg15
I00
sbsg1424
g0
(g1025
g20
(lp1963
F0.0
aF0.0
atp1964
Rp1965
(dp1966
g14
I00
sg32
I01
sg15
I00
sbsbsbsg1066
g1068
sg476
g479
sg842
g844
ssg116
g102
sg428
g431
sg1320
g1322
sS'CSCGeometryESModule'
p1967
g0
(g7
g2
Ntp1968
Rp1969
(dp1970
g11
(lp1971
g150
aS'useDDD'
p1972
aS'debugV'
p1973
aS'useGangedStripsInME1a'
p1974
ag1052
aS'useOnlyWiresInME1a'
p1975
aS'useRealWireGeometry'
p1976
aS'useCentreTIOffsets'
p1977
ag421
asg14
I00
sg150
g0
(g67
g2
Ntp1978
Rp1979
(dp1980
g14
I00
sg32
I01
sg71
g72
sg15
I00
sbsg15
I00
sg1973
g0
(g82
g2
Ntp1981
Rp1982
(dp1983
g14
I00
sg32
I00
sg71
I00
sg15
I00
sbsg17
g18
sg1974
g0
(g82
g2
Ntp1984
Rp1985
(dp1986
g14
I00
sg32
I01
sg71
I01
sg15
I00
sbsg1052
g0
(g67
g2
Ntp1987
Rp1988
(dp1989
g14
I00
sg32
I01
sg71
g72
sg15
I00
sbsg1975
g0
(g82
g2
Ntp1990
Rp1991
(dp1992
g14
I00
sg32
I01
sg71
I00
sg15
I00
sbsg1972
g0
(g82
g2
Ntp1993
Rp1994
(dp1995
g14
I00
sg32
I01
sg71
I00
sg15
I00
sbsg16
I56
sg1977
g0
(g82
g2
Ntp1996
Rp1997
(dp1998
g14
I00
sg32
I01
sg71
I00
sg15
I00
sbsg34
g1967
sg1976
g0
(g82
g2
Ntp1999
Rp2000
(dp2001
g14
I00
sg32
I01
sg71
I01
sg15
I00
sbsg421
g0
(g82
g2
Ntp2002
Rp2003
(dp2004
g14
I00
sg32
I01
sg71
I01
sg15
I00
sbsg35
g1967
sbsS'EcalBarrelGeometryFromDBEP'
p2005
g0
(g7
g2
Ntp2006
Rp2007
(dp2008
g11
(lp2009
g421
asg14
I00
sg15
I01
sg16
I56
sg17
g18
sg34
g2005
sg421
g0
(g82
g2
Ntp2010
Rp2011
(dp2012
g14
I00
sg32
I01
sg71
I01
sg15
I01
sbsg35
g2005
sbsS'trackerNumberingGeometryDB'
p2013
g0
(g7
g2
Ntp2014
Rp2015
(dp2016
g11
(lp2017
g150
ag1051
asg14
I00
sg150
g0
(g67
g2
Ntp2018
Rp2019
(dp2020
g14
I00
sg32
I01
sg71
g72
sg15
I00
sbsg15
I00
sg16
I56
sg17
g18
sg34
g2013
sg1051
g0
(g82
g2
Ntp2021
Rp2022
(dp2023
g14
I00
sg32
I01
sg71
I00
sg15
I00
sbsg35
S'TrackerGeometricDetESModule'
p2024
sbsS'_Process__name'
p2025
S'Analysis'
p2026
sg1194
g1332
sS'_cloneToObjectDict'
p2027
(dp2028
I140445929161616
g0
(g7
g2
Ntp2029
Rp2030
(dp2031
g11
(lp2032
S'ComponentType'
p2033
ag1306
aS'parameters'
p2034
asg14
I00
sg15
I01
sg2034
g0
(g161
g2
Ntp2035
Rp2036
(dp2037
g14
I00
sg32
I01
sS'maxChgOneMIP'
p2038
g0
(g854
g2
Ntp2039
Rp2040
(dp2041
g14
I00
sg32
I01
sg71
F6000.0
sg15
I00
sbsS'mLC_P2'
p2042
g0
(g854
g2
Ntp2043
Rp2044
(dp2045
g14
I00
sg32
I01
sg71
F0.3
sg15
I00
sbsS'mLC_P1'
p2046
g0
(g854
g2
Ntp2047
Rp2048
(dp2049
g14
I00
sg32
I01
sg71
F0.618
sg15
I00
sbsS'mLC_P0'
p2050
g0
(g854
g2
Ntp2051
Rp2052
(dp2053
g14
I00
sg32
I01
sg71
F-0.326
sg15
I00
sbsS'useLegacyError'
p2054
g0
(g82
g2
Ntp2055
Rp2056
(dp2057
g14
I00
sg32
I01
sg71
I00
sg15
I00
sbsS'mTIB_P1'
p2058
g0
(g854
g2
Ntp2059
Rp2060
(dp2061
g14
I00
sg32
I01
sg71
F0.202
sg15
I00
sbsS'mTEC_P1'
p2062
g0
(g854
g2
Ntp2063
Rp2064
(dp2065
g14
I00
sg32
I01
sg71
F0.471
sg15
I00
sbsS'mTEC_P0'
p2066
g0
(g854
g2
Ntp2067
Rp2068
(dp2069
g14
I00
sg32
I01
sg71
F-1.885
sg15
I00
sbsS'mTOB_P0'
p2070
g0
(g854
g2
Ntp2071
Rp2072
(dp2073
g14
I00
sg32
I01
sg71
F-1.026
sg15
I00
sbsS'mTOB_P1'
p2074
g0
(g854
g2
Ntp2075
Rp2076
(dp2077
g14
I00
sg32
I01
sg71
F0.253
sg15
I00
sbsS'mTIB_P0'
p2078
g0
(g854
g2
Ntp2079
Rp2080
(dp2081
g14
I00
sg32
I01
sg71
F-0.742
sg15
I00
sbsg11
(lp2082
g2038
ag2042
ag2046
ag2050
ag2054
ag2062
ag2066
ag2070
ag2074
ag2078
ag2058
aS'mTID_P0'
p2083
aS'mTID_P1'
p2084
asg2083
g0
(g854
g2
Ntp2085
Rp2086
(dp2087
g14
I00
sg32
I01
sg71
F-1.427
sg15
I00
sbsg2084
g0
(g854
g2
Ntp2088
Rp2089
(dp2090
g14
I00
sg32
I01
sg71
F0.433
sg15
I00
sbsg15
I00
sbsg16
I4
sg1306
g0
(g67
g2
Ntp2091
Rp2092
(dp2093
g14
I00
sg32
I01
sg71
S'StripCPEfromTrackAngle'
p2094
sg15
I00
sbsg2033
g0
(g67
g2
Ntp2095
Rp2096
(dp2097
g14
I00
sg32
I01
sg71
g2094
sg15
I00
sbsg17
S'/cvmfs/cms.cern.ch/slc7_amd64_gcc700/cms/cmssw-patch/CMSSW_10_6_4_patch1/python/RecoLocalTracker/SiStripRecHitConverter/StripCPEfromTrackAngle_cfi.py'
p2098
sg34
S'StripCPEfromTrackAngleESProducer'
p2099
sg35
S'StripCPEESProducer'
p2100
sbsI140445929452304
g431
sI140445929825232
g0
(g7
g2
Ntp2101
Rp2102
(dp2103
g11
(lp2104
S'MergePosition'
p2105
aS'Exclude'
p2106
ag150
asg14
I00
sg150
g0
(g67
g2
Ntp2107
Rp2108
(dp2109
g14
I00
sg32
I01
sg71
g72
sg15
I00
sbsg15
I00
sg16
I56
sg2105
g0
(g82
g2
Ntp2110
Rp2111
(dp2112
g14
I00
sg32
I00
sg71
I00
sg15
I00
sbsg17
g18
sg34
S'hcalTopologyIdeal'
p2113
sg2106
g0
(g67
g2
Ntp2114
Rp2115
(dp2116
g14
I00
sg32
I00
sg71
g72
sg15
I00
sbsg35
S'HcalTopologyIdealEP'
p2117
sbsI140445929346064
g0
(g7
g2
Ntp2118
Rp2119
(dp2120
g11
(lp2121
g150
asg14
I00
sg150
g0
(g67
g2
Ntp2122
Rp2123
(dp2124
g14
I00
sg32
I01
sg71
g1225
sg15
I01
sbsg15
I01
sg16
I5
sg17
S'/cvmfs/cms.cern.ch/slc7_amd64_gcc700/cms/cmssw-patch/CMSSW_10_6_4_patch1/python/Alignment/CommonAlignmentProducer/fakeForIdealAlignmentProducer_cfi.py'
p2125
sg34
S'fakeForIdealAlignment'
p2126
sg35
S'FakeAlignmentProducer'
p2127
sbsI140445929112848
g0
(g7
g2
Ntp2128
Rp2129
(dp2130
g11
(lp2131
g150
asg14
I00
sg150
g0
(g67
g2
Ntp2132
Rp2133
(dp2134
g14
I00
sg32
I01
sg71
g72
sg15
I00
sbsg15
I00
sg16
I56
sg17
g18
sg34
S'CastorDbProducer'
p2135
sg35
g2135
sbsI140445929792656
g2015
sI140445929522384
g479
sI140445929346320
g0
(g7
g2
Ntp2136
Rp2137
(dp2138
g11
(lp2139
g150
ag1972
ag1973
ag1974
ag1052
ag1975
ag1976
ag1977
ag421
asg14
I00
sg150
g0
(g67
g2
Ntp2140
Rp2141
(dp2142
g14
I00
sg32
I01
sg71
g1221
sg15
I01
sbsg15
I01
sg1973
g0
(g82
g2
Ntp2143
Rp2144
(dp2145
g14
I00
sg32
I00
sg71
I00
sg15
I00
sbsg17
S'/cvmfs/cms.cern.ch/slc7_amd64_gcc700/cms/cmssw-patch/CMSSW_10_6_4_patch1/python/Geometry/CSCGeometryBuilder/idealForDigiCscGeometryDB_cff.py'
p2146
sg1974
g0
(g82
g2
Ntp2147
Rp2148
(dp2149
g14
I00
sg32
I01
sg71
I01
sg15
I00
sbsg1052
g0
(g67
g2
Ntp2150
Rp2151
(dp2152
g14
I00
sg32
I01
sg71
g1225
sg15
I01
sbsg1975
g0
(g82
g2
Ntp2153
Rp2154
(dp2155
g14
I00
sg32
I01
sg71
I00
sg15
I00
sbsg1972
g0
(g82
g2
Ntp2156
Rp2157
(dp2158
g14
I00
sg32
I01
sg71
I00
sg15
I00
sbsg16
I8
sg1977
g0
(g82
g2
Ntp2159
Rp2160
(dp2161
g14
I00
sg32
I01
sg71
I00
sg15
I00
sbsg34
S'idealForDigiCSCGeometry'
p2162
sg1976
g0
(g82
g2
Ntp2163
Rp2164
(dp2165
g14
I00
sg32
I01
sg71
I01
sg15
I00
sbsg421
g0
(g82
g2
Ntp2166
Rp2167
(dp2168
g14
I00
sg32
I01
sg71
I00
sg15
I01
sbsg35
g1967
sbsI140445929737872
g1969
sI140445929825680
g0
(g7
g2
Ntp2169
Rp2170
(dp2171
g11
(lp2172
sg14
I00
sg15
I00
sg16
I56
sg17
g18
sg34
S'CaloTowerTopologyEP'
p2173
sg35
g2173
sbsI140445929326032
g1148
sI140445929793104
g1048
sI140445929793296
g0
(g7
g2
Ntp2174
Rp2175
(dp2176
g11
(lp2177
sg14
I00
sg15
I00
sg16
I56
sg17
g18
sg34
S'GlobalTrackingGeometryESProducer'
p2178
sg35
g2178
sbsI140445929189520
g0
(g7
g2
Ntp2179
Rp2180
(dp2181
g11
(lp2182
g150
aS'PrintDebugOutput'
p2183
aS'ThresholdForReducedGranularity'
p2184
aS'UseEmptyRunInfo'
p2185
aS'ReduceGranularity'
p2186
ag442
asg14
I00
sg150
g0
(g67
g2
Ntp2187
Rp2188
(dp2189
g14
I00
sg32
I01
sg71
g72
sg15
I00
sbsg15
I01
sg16
I56
sg17
g18
sg2184
g0
(g854
g2
Ntp2190
Rp2191
(dp2192
g14
I00
sg32
I01
sg71
F0.3
sg15
I00
sbsg34
S'siStripQualityESProducer'
p2193
sg2185
g0
(g82
g2
Ntp2194
Rp2195
(dp2196
g14
I00
sg32
I01
sg71
I00
sg15
I00
sbsg2186
g0
(g82
g2
Ntp2197
Rp2198
(dp2199
g14
I00
sg32
I01
sg71
I00
sg15
I00
sbsg442
g0
(g446
g20
(lp2200
g0
(g161
g2
Ntp2201
Rp2202
(dp2203
g14
I00
sg32
I01
sg15
I00
sg451
g0
(g67
g2
Ntp2204
Rp2205
(dp2206
g14
I00
sg32
I01
sg71
S'SiStripDetVOffRcd'
p2207
sg15
I00
sbsg456
g0
(g67
g2
Ntp2208
Rp2209
(dp2210
g14
I00
sg32
I01
sg71
g72
sg15
I00
sbsg11
(lp2211
g451
ag456
asbag0
(g161
g2
Ntp2212
Rp2213
(dp2214
g14
I00
sg32
I01
sg15
I00
sg451
g0
(g67
g2
Ntp2215
Rp2216
(dp2217
g14
I00
sg32
I01
sg71
S'SiStripDetCablingRcd'
p2218
sg15
I00
sbsg456
g0
(g67
g2
Ntp2219
Rp2220
(dp2221
g14
I00
sg32
I01
sg71
g72
sg15
I00
sbsg11
(lp2222
g451
ag456
asbag0
(g161
g2
Ntp2223
Rp2224
(dp2225
g14
I00
sg32
I01
sg15
I00
sg451
g0
(g67
g2
Ntp2226
Rp2227
(dp2228
g14
I00
sg32
I01
sg71
S'RunInfoRcd'
p2229
sg15
I00
sbsg456
g0
(g67
g2
Ntp2230
Rp2231
(dp2232
g14
I00
sg32
I01
sg71
g72
sg15
I00
sbsg11
(lp2233
g451
ag456
asbag0
(g161
g2
Ntp2234
Rp2235
(dp2236
g14
I00
sg32
I01
sg15
I00
sg451
g0
(g67
g2
Ntp2237
Rp2238
(dp2239
g14
I00
sg32
I01
sg71
S'SiStripBadChannelRcd'
p2240
sg15
I00
sbsg456
g0
(g67
g2
Ntp2241
Rp2242
(dp2243
g14
I00
sg32
I01
sg71
g72
sg15
I00
sbsg11
(lp2244
g451
ag456
asbag0
(g161
g2
Ntp2245
Rp2246
(dp2247
g14
I00
sg32
I01
sg15
I00
sg451
g0
(g67
g2
Ntp2248
Rp2249
(dp2250
g14
I00
sg32
I01
sg71
S'SiStripBadFiberRcd'
p2251
sg15
I00
sbsg456
g0
(g67
g2
Ntp2252
Rp2253
(dp2254
g14
I00
sg32
I01
sg71
g72
sg15
I00
sbsg11
(lp2255
g451
ag456
asbag0
(g161
g2
Ntp2256
Rp2257
(dp2258
g14
I00
sg32
I01
sg15
I00
sg451
g0
(g67
g2
Ntp2259
Rp2260
(dp2261
g14
I00
sg32
I01
sg71
S'SiStripBadModuleRcd'
p2262
sg15
I00
sbsg456
g0
(g67
g2
Ntp2263
Rp2264
(dp2265
g14
I00
sg32
I01
sg71
g72
sg15
I00
sbsg11
(lp2266
g451
ag456
asbag0
(g161
g2
Ntp2267
Rp2268
(dp2269
g14
I00
sg32
I01
sg15
I00
sg451
g0
(g67
g2
Ntp2270
Rp2271
(dp2272
g14
I00
sg32
I01
sg71
S'SiStripBadStripRcd'
p2273
sg15
I00
sbsg456
g0
(g67
g2
Ntp2274
Rp2275
(dp2276
g14
I00
sg32
I01
sg71
g72
sg15
I00
sbsg11
(lp2277
g451
ag456
asbatp2278
Rp2279
(dp2280
g14
I00
sg32
I01
sg15
I00
sg33
I1
sbsg35
S'SiStripQualityESProducer'
p2281
sg2183
g0
(g82
g2
Ntp2282
Rp2283
(dp2284
g14
I00
sg32
I01
sg71
I00
sg15
I00
sbsbsI140445929793360
g0
(g7
g2
Ntp2285
Rp2286
(dp2287
g11
(lp2288
sg14
I00
sg15
I00
sg16
I56
sg17
g18
sg34
S'TrackerRecoGeometryESProducer'
p2289
sg35
g2289
sbsI140445929793488
g0
(g7
g2
Ntp2290
Rp2291
(dp2292
g11
(lp2293
g150
asg14
I00
sg150
g0
(g67
g2
Ntp2294
Rp2295
(dp2296
g14
I00
sg32
I01
sg71
g72
sg15
I00
sbsg15
I00
sg16
I56
sg17
g18
sg34
S'trackerTopology'
p2297
sg35
S'TrackerTopologyEP'
p2298
sbsI140445929326160
g1241
sI140445929736272
g1322
sI140445929793680
g563
sI140445929826512
g0
(g7
g2
Ntp2299
Rp2300
(dp2301
g11
(lp2302
g421
asg14
I00
sg15
I00
sg16
I56
sg17
g18
sg34
S'CastorGeometryFromDBEP'
p2303
sg421
g0
(g82
g2
Ntp2304
Rp2305
(dp2306
g14
I00
sg32
I01
sg71
I00
sg15
I00
sbsg35
g2303
sbsI140445929345104
g0
(g7
g2
Ntp2307
Rp2308
(dp2309
g11
(lp2310
g150
asg14
I00
sg150
g0
(g67
g2
Ntp2311
Rp2312
(dp2313
g14
I00
sg32
I01
sg71
g72
sg15
I00
sbsg15
I00
sg16
I56
sg17
g18
sg34
S'hcalDDDRecConstants'
p2314
sg35
S'HcalDDDRecConstantsESModule'
p2315
sbsI140445929543952
g1022
sI140445929544016
g0
(g7
g2
Ntp2316
Rp2317
(dp2318
g11
(lp2319
S'file'
p2320
aS'dump'
p2321
asg14
I00
sg15
I00
sg2321
g0
(g19
g20
(lp2322
g72
atp2323
Rp2324
(dp2325
g14
I00
sg32
I00
sg15
I00
sg33
I1
sbsg16
I56
sg17
g18
sg2320
g0
(g67
g2
Ntp2326
Rp2327
(dp2328
g14
I00
sg32
I00
sg71
g72
sg15
I00
sbsg34
S'hcal_db_producer'
p2329
sg35
S'HcalDbProducer'
p2330
sbsI140445929161168
g1102
sI140445929826832
g1092
sI140445929115344
g0
(g7
g2
Ntp2331
Rp2332
(dp2333
g11
(lp2334
g1105
aS'LorentzAngleDeconvMode'
p2335
aS'LorentzAnglePeakMode'
p2336
asg14
I00
sg15
I00
sg16
I56
sg17
g18
sg1105
g0
(g161
g2
Ntp2337
Rp2338
(dp2339
g14
I00
sg32
I01
sg15
I00
sg123
g0
(g67
g2
Ntp2340
Rp2341
(dp2342
g14
I00
sg32
I00
sg71
g72
sg15
I00
sbsg451
g0
(g67
g2
Ntp2343
Rp2344
(dp2345
g14
I00
sg32
I01
sg71
g1117
sg15
I00
sbsg11
(lp2346
g451
ag123
asbsg34
S'siStripLorentzAngleDepESProducer'
p2347
sg2336
g0
(g161
g2
Ntp2348
Rp2349
(dp2350
g14
I00
sg32
I01
sg15
I00
sg123
g0
(g67
g2
Ntp2351
Rp2352
(dp2353
g14
I00
sg32
I00
sg71
g1125
sg15
I00
sbsg451
g0
(g67
g2
Ntp2354
Rp2355
(dp2356
g14
I00
sg32
I01
sg71
S'SiStripLorentzAngleRcd'
p2357
sg15
I00
sbsg11
(lp2358
g451
ag123
asbsg35
S'SiStripLorentzAngleDepESProducer'
p2359
sg2335
g0
(g161
g2
Ntp2360
Rp2361
(dp2362
g14
I00
sg32
I01
sg15
I00
sg123
g0
(g67
g2
Ntp2363
Rp2364
(dp2365
g14
I00
sg32
I00
sg71
g1137
sg15
I00
sbsg451
g0
(g67
g2
Ntp2366
Rp2367
(dp2368
g14
I00
sg32
I01
sg71
g2357
sg15
I00
sbsg11
(lp2369
g451
ag123
asbsbsI140445929114448
g0
(g7
g2
Ntp2370
Rp2371
(dp2372
g11
(lp2373
S'printDebug'
p2374
ag150
aS'APVGain'
p2375
aS'AutomaticNormalization'
p2376
asg14
I00
sg150
g0
(g67
g2
Ntp2377
Rp2378
(dp2379
g14
I00
sg32
I01
sg71
g72
sg15
I00
sbsg15
I00
sg2376
g0
(g82
g2
Ntp2380
Rp2381
(dp2382
g14
I00
sg32
I01
sg71
I00
sg15
I00
sbsg16
I56
sg2374
g0
(g82
g2
Ntp2383
Rp2384
(dp2385
g14
I00
sg32
I00
sg71
I00
sg15
I00
sbsg17
g18
sg2375
g0
(g446
g20
(lp2386
g0
(g161
g2
Ntp2387
Rp2388
(dp2389
g14
I00
sg32
I01
sg15
I00
sS'Label'
p2390
g0
(g67
g2
Ntp2391
Rp2392
(dp2393
g14
I00
sg32
I00
sg71
g72
sg15
I00
sbsS'Record'
p2394
g0
(g67
g2
Ntp2395
Rp2396
(dp2397
g14
I00
sg32
I01
sg71
S'SiStripApvGainRcd'
p2398
sg15
I00
sbsS'NormalizationFactor'
p2399
g0
(g854
g2
Ntp2400
Rp2401
(dp2402
g14
I00
sg32
I00
sg71
F1.0
sg15
I00
sbsg11
(lp2403
g2394
ag2399
ag2390
asbag0
(g161
g2
Ntp2404
Rp2405
(dp2406
g14
I00
sg32
I01
sg15
I00
sg2390
g0
(g67
g2
Ntp2407
Rp2408
(dp2409
g14
I00
sg32
I00
sg71
g72
sg15
I00
sbsg2394
g0
(g67
g2
Ntp2410
Rp2411
(dp2412
g14
I00
sg32
I01
sg71
S'SiStripApvGain2Rcd'
p2413
sg15
I00
sbsg2399
g0
(g854
g2
Ntp2414
Rp2415
(dp2416
g14
I00
sg32
I00
sg71
F1.0
sg15
I00
sbsg11
(lp2417
g2394
ag2399
ag2390
asbatp2418
Rp2419
(dp2420
g14
I00
sg32
I01
sg15
I00
sg33
I1
sbsg34
S'siStripGainESProducer'
p2421
sg35
S'SiStripGainESProducer'
p2422
sbsI140445929455184
g0
(g7
g2
Ntp2423
Rp2424
(dp2425
g11
(lp2426
sg14
I00
sg15
I00
sg16
I56
sg17
g18
sg34
S'EcalLaserCorrectionService'
p2427
sg35
g2427
sbsI140445929454480
g1280
sI140445929794512
g9
sI140445929606160
g1332
sI140445929348176
g119
sI140445929827536
g1068
sI140445929827280
g0
(g7
g2
Ntp2428
Rp2429
(dp2430
g11
(lp2431
sg14
I00
sg15
I00
sg16
I56
sg17
g18
sg34
S'EcalElectronicsMappingBuilder'
p2432
sg35
g2432
sbsI140445929795024
g0
(g7
g2
Ntp2433
Rp2434
(dp2435
g11
(lp2436
g421
asg14
I00
sg15
I01
sg16
I56
sg17
g18
sg34
S'EcalPreshowerGeometryFromDBEP'
p2437
sg421
g0
(g82
g2
Ntp2438
Rp2439
(dp2440
g14
I00
sg32
I01
sg71
I01
sg15
I01
sbsg35
g2437
sbsI140445929454992
g0
(g7
g2
Ntp2441
Rp2442
(dp2443
g11
(lp2444
S'version'
p2445
ag1283
ag123
asg14
I00
sg15
I01
sg16
I56
sg17
g18
sg123
g0
(g67
g2
Ntp2446
Rp2447
(dp2448
g14
I00
sg32
I00
sg71
S'ParabolicMf'
p2449
sg15
I01
sbsg2445
g0
(g67
g2
Ntp2450
Rp2451
(dp2452
g14
I00
sg32
I01
sg71
S'Parabolic'
p2453
sg15
I00
sbsg1283
g0
(g522
g2
Ntp2454
Rp2455
(dp2456
g14
I00
sg32
I01
sg71
I18268
sg15
I01
sbsg34
S'ParabolicParametrizedMagneticFieldProducer'
p2457
sg35
S'AutoParametrizedMagneticFieldProducer'
p2458
sbsI140445929348560
g1258
sI140445929795152
g2007
sI140445929828048
g147
sI140445929111760
g1190
sI140445929543248
g844
sI140445929348944
g1199
sI140445929826192
g0
(g7
g2
Ntp2459
Rp2460
(dp2461
g11
(lp2462
g421
asg14
I00
sg15
I00
sg16
I56
sg17
g18
sg34
S'ZdcGeometryFromDBEP'
p2463
sg421
g0
(g82
g2
Ntp2464
Rp2465
(dp2466
g14
I00
sg32
I01
sg71
I00
sg15
I00
sbsg35
g2463
sbsI140445929163088
g0
(g7
g2
Ntp2467
Rp2468
(dp2469
g11
(lp2470
sg14
I00
sg15
I00
sg16
I56
sg17
g18
sg34
S'sistripconn'
p2471
sg35
S'SiStripConnectivity'
p2472
sbsI140445929161488
g0
(g7
g2
Ntp2473
Rp2474
(dp2475
g11
(lp2476
g2033
ag1306
ag2034
asg14
I00
sg15
I00
sg2034
g0
(g161
g2
Ntp2477
Rp2478
(dp2479
g14
I00
sg32
I01
sg15
I00
sg11
(lp2480
sbsg16
I56
sg1306
g0
(g67
g2
Ntp2481
Rp2482
(dp2483
g14
I00
sg32
I01
sg71
S'stripCPE'
p2484
sg15
I00
sbsg2033
g0
(g67
g2
Ntp2485
Rp2486
(dp2487
g14
I00
sg32
I01
sg71
S'SimpleStripCPE'
p2488
sg15
I00
sbsg17
g18
sg34
S'stripCPEESProducer'
p2489
sg35
g2100
sbsI140445929824336
g1014
sI140445929794064
g1297
sI140445929824400
g0
(g7
g2
Ntp2490
Rp2491
(dp2492
g11
(lp2493
sg14
I00
sg15
I00
sg16
I56
sg17
g18
sg34
S'HcalAlignmentEP'
p2494
sg35
g2494
sbsI140445929791632
g0
(g7
g2
Ntp2495
Rp2496
(dp2497
g11
(lp2498
g1972
aS'compatibiltyWith11'
p2499
asg14
I00
sg15
I00
sg16
I56
sg17
g18
sg1972
g0
(g82
g2
Ntp2500
Rp2501
(dp2502
g14
I00
sg32
I00
sg71
I00
sg15
I00
sbsg2499
g0
(g82
g2
Ntp2503
Rp2504
(dp2505
g14
I00
sg32
I00
sg71
I01
sg15
I00
sbsg34
S'RPCGeometryESModule'
p2506
sg35
g2506
sbsI140445929794896
g568
sI140445929345296
g1215
sI140445929347152
g0
(g7
g2
Ntp2507
Rp2508
(dp2509
g11
(lp2510
g150
ag1051
ag421
ag1052
asg14
I00
sg150
g0
(g67
g2
Ntp2511
Rp2512
(dp2513
g14
I00
sg32
I01
sg71
g1221
sg15
I01
sbsg15
I01
sg1052
g0
(g67
g2
Ntp2514
Rp2515
(dp2516
g14
I00
sg32
I01
sg71
g1225
sg15
I01
sbsg17
S'/cvmfs/cms.cern.ch/slc7_amd64_gcc700/cms/cmssw-patch/CMSSW_10_6_4_patch1/python/Geometry/DTGeometryBuilder/idealForDigiDtGeometryDB_cff.py'
p2517
sg16
I8
sg34
S'idealForDigiDTGeometry'
p2518
sg1051
g0
(g82
g2
Ntp2519
Rp2520
(dp2521
g14
I00
sg32
I01
sg71
I00
sg15
I00
sbsg421
g0
(g82
g2
Ntp2522
Rp2523
(dp2524
g14
I00
sg32
I01
sg71
I00
sg15
I01
sbsg35
g1261
sbsI140445929163984
g438
sI140445929824720
g418
sI140445929255504
g41
sI140445929162960
g1302
sI140445929255248
g52
sI140445929792272
g1263
ssg2421
g2371
sg2506
g2496
sg2471
g2468
sg2463
g2460
sg2289
g2286
sg2347
g2332
sg2173
g2170
sg2457
g2442
sg2489
g2474
sg2297
g2291
sg2303
g2300
sg1187
g1190
sg2432
g2429
sg2099
g2030
sS'_Process__aliases'
p2525
(dp2526
sg2178
g2175
sg2113
g2102
sg2494
g2491
sg2437
g2434
sg2314
g2308
sg2135
g2129
sg2162
g2137
sS'_Process__subProcesses'
p2527
(lp2528
sg2329
g2317
sg1238
g1241
sg2427
g2424
sS'_Process__schedule'
p2529
Nsg2193
g2180
sg2518
g2508
sS'_Process__modifiers'
p2530
(tsS'_Process__filters'
p2531
(dp2532
g66
g52
ssS'_Process__esproducers'
p2533
(dp2534
g6
g9
sg2193
g2180
sg2427
g2424
sg2289
g2286
sg1278
g1280
sg2099
g2030
sg2303
g2300
sg1295
g1297
sg2178
g2175
sg117
g119
sg1046
g1048
sg2347
g2332
sg2113
g2102
sg2494
g2491
sg2437
g2434
sg2135
g2129
sg2314
g2308
sg1967
g1969
sg2005
g2007
sg2013
g2015
sg2432
g2429
sg1090
g1092
sg2162
g2137
sg416
g418
sg1100
g1102
sg2329
g2317
sg2421
g2371
sg1300
g1302
sg2506
g2496
sg2518
g2508
sg2463
g2460
sg1261
g1263
sg566
g568
sg2471
g2468
sg436
g438
sg1213
g1215
sg2173
g2170
sg2457
g2442
sg2489
g2474
sg145
g147
sg561
g563
sg2297
g2291
sg1256
g1258
sg2126
g2119
sg1012
g1014
ssS'_Process__partialschedules'
p2535
(dp2536
sg2126
g2119
sb.